C51 COMPILER V7.06   MAIN                                                                  12/01/2005 19:02:46 PAGE 1   


C51 COMPILER V7.06, COMPILATION OF MODULE MAIN
OBJECT MODULE PLACED IN .\OUT\main.obj
COMPILER INVOKED BY: c:\Keil\C51\BIN\C51.EXE main.c COMPACT BROWSE DEBUG OBJECTEXTEND CODE LISTINCLUDE SYMBOLS PRINT(.\L
                    -ST\main.lst) OBJECT(.\OUT\main.obj)

stmt level    source

   1          #include <stdio.h>
   1      =1  /*--------------------------------------------------------------------------
   2      =1  STDIO.H
   3      =1  
   4      =1  Prototypes for standard I/O functions.
   5      =1  Copyright (c) 1988-2002 Keil Elektronik GmbH and Keil Software, Inc.
   6      =1  All rights reserved.
   7      =1  --------------------------------------------------------------------------*/
   8      =1  
   9      =1  #ifndef __STDIO_H__
  10      =1  #define __STDIO_H__
  11      =1  
  12      =1  #ifndef EOF
  13      =1   #define EOF -1
  14      =1  #endif
  15      =1  
  16      =1  #ifndef NULL
  17      =1   #define NULL ((void *) 0)
  18      =1  #endif
  19      =1  
  20      =1  #ifndef _SIZE_T
  21      =1   #define _SIZE_T
  22      =1   typedef unsigned int size_t;
  23      =1  #endif
  24      =1  
  25      =1  #pragma SAVE
  26      =1  #pragma REGPARMS
  27      =1  extern char _getkey (void);
  28      =1  extern char getchar (void);
  29      =1  extern char ungetchar (char);
  30      =1  extern char putchar (char);
  31      =1  extern int printf   (const char *, ...);
  32      =1  extern int sprintf  (char *, const char *, ...);
  33      =1  extern int vprintf  (const char *, char *);
  34      =1  extern int vsprintf (char *, const char *, char *);
  35      =1  extern char *gets (char *, int n);
  36      =1  extern int scanf (const char *, ...);
  37      =1  extern int sscanf (char *, const char *, ...);
  38      =1  extern int puts (const char *);
  39      =1  
  40      =1  #pragma RESTORE
  41      =1  
  42      =1  #endif
  43      =1  
   2          #include <string.h>
   1      =1  /*--------------------------------------------------------------------------
   2      =1  STRING.H
   3      =1  
   4      =1  String functions.
   5      =1  Copyright (c) 1988-2002 Keil Elektronik GmbH and Keil Software, Inc.
   6      =1  All rights reserved.
   7      =1  --------------------------------------------------------------------------*/
   8      =1  
   9      =1  #ifndef __STRING_H__
C51 COMPILER V7.06   MAIN                                                                  12/01/2005 19:02:46 PAGE 2   

  10      =1  #define __STRING_H__
  11      =1  
  12      =1  #ifndef _SIZE_T
           =1  #define _SIZE_T
           =1  typedef unsigned int size_t;
           =1 #endif
  16      =1  
  17      =1  #ifndef NULL
           =1  #define NULL ((void *) 0L)
           =1 #endif
  20      =1  
  21      =1  #pragma SAVE
  22      =1  #pragma REGPARMS
  23      =1  extern char *strcat (char *s1, char *s2);
  24      =1  extern char *strncat (char *s1, char *s2, int n);
  25      =1  
  26      =1  extern char strcmp (char *s1, char *s2);
  27      =1  extern char strncmp (char *s1, char *s2, int n);
  28      =1  
  29      =1  extern char *strcpy (char *s1, char *s2);
  30      =1  extern char *strncpy (char *s1, char *s2, int n);
  31      =1  
  32      =1  extern int strlen (char *);
  33      =1  
  34      =1  extern char *strchr (const char *s, char c);
  35      =1  extern int strpos (const char *s, char c);
  36      =1  extern char *strrchr (const char *s, char c);
  37      =1  extern int strrpos (const char *s, char c);
  38      =1  
  39      =1  extern int strspn (char *s, char *set);
  40      =1  extern int strcspn (char *s, char *set);
  41      =1  extern char *strpbrk (char *s, char *set);
  42      =1  extern char *strrpbrk (char *s, char *set);
  43      =1  extern char *strstr  (char *s, char *sub);
  44      =1  extern char *strtok  (char *str, const char *set);
  45      =1  
  46      =1  extern char memcmp (void *s1, void *s2, int n);
  47      =1  extern void *memcpy (void *s1, void *s2, int n);
  48      =1  extern void *memchr (void *s, char val, int n);
  49      =1  extern void *memccpy (void *s1, void *s2, char val, int n);
  50      =1  extern void *memmove (void *s1, void *s2, int n);
  51      =1  extern void *memset  (void *s, char val, int n);
  52      =1  #pragma RESTORE
  53      =1  
  54      =1  #endif
   3          #include "com.h"
   1      =1  #ifndef __COM_H
   2      =1  #define __COM_H
   3      =1  
   4      =1  #include "reg66x.h"
   1      =2  /*-------------------------------------------------------------------------
   2      =2  REG66x.H
   3      =2  
   4      =2  Header file for Philips 8xC660/662/664
   5      =2    
   6      =2  Copyright (c) 1988-2001 Keil Elektronik GmbH and Keil Software, Inc.
   7      =2  All rights reserved.
   8      =2  -------------------------------------------------------------------------*/
   9      =2  
  10      =2  sfr  P0      =   0x80;                   
  11      =2  
  12      =2  sbit  AD7    =   P0^7;
C51 COMPILER V7.06   MAIN                                                                  12/01/2005 19:02:46 PAGE 3   

  13      =2  sbit  AD6    =   P0^6;
  14      =2  sbit  AD5    =   P0^5;
  15      =2  sbit  AD4    =   P0^4;
  16      =2  sbit  AD3    =   P0^3;
  17      =2  sbit  AD2    =   P0^2;
  18      =2  sbit  AD1    =   P0^1;
  19      =2  sbit  AD0    =   P0^0;
  20      =2  
  21      =2  sfr  SP      =   0x81;
  22      =2  sfr  DPL     =   0x82;
  23      =2  sfr  DPH     =   0x83;
  24      =2  
  25      =2  sfr  PCON    =   0x87;                   
  26      =2  
  27      =2  sfr  TCON    =   0x88;             
  28      =2  
  29      =2  sbit  TF1    =   TCON^7;
  30      =2  sbit  TR1    =   TCON^6;
  31      =2  sbit  TF0    =   TCON^5;
  32      =2  sbit  TR0    =   TCON^4;
  33      =2  sbit  IE1_   =   TCON^3;
  34      =2  sbit  IT1    =   TCON^2;
  35      =2  sbit  IE0_   =   TCON^1;
  36      =2  sbit  IT0    =   TCON^0;
  37      =2  
  38      =2  sfr  TMOD    =   0x89;                   
  39      =2  
  40      =2  sfr  TL0     =   0x8A;                   
  41      =2  
  42      =2  sfr  TL1     =   0x8B;                   
  43      =2  
  44      =2  sfr  TH0     =   0x8C;                   
  45      =2  
  46      =2  sfr  TH1     =   0x8D;                   
  47      =2  
  48      =2  sfr  P1      =   0x90;                   
  49      =2  
  50      =2  sbit  SDA     =   P1^7;
  51      =2  sbit  SCL     =   P1^6;
  52      =2  sbit  CEX2    =   P1^5;
  53      =2  sbit  CEX1    =   P1^4;
  54      =2  sbit  CEX0    =   P1^3;
  55      =2  sbit  ECI     =   P1^2;
  56      =2  sbit  T2EX    =   P1^1;
  57      =2  sbit  T2      =   P1^0;
  58      =2  
  59      =2  
  60      =2  sbit  P17     =   P1^7;
  61      =2  sbit  P16     =   P1^6;
  62      =2  sbit  P15    =   P1^5;
  63      =2  sbit  P14    =   P1^4;
  64      =2  sbit  P13    =   P1^3;
  65      =2  sbit  P12     =   P1^2;
  66      =2  sbit  P11    =   P1^1;
  67      =2  sbit  P10      =   P1^0;
  68      =2  
  69      =2  
  70      =2  sfr  S0CON    =   0x98;                  
  71      =2  sfr  S1CON    =   0xD8;
  72      =2  
  73      =2  sbit  SM0    =   S0CON^7;
  74      =2  sbit  FE     =   S0CON^7;
C51 COMPILER V7.06   MAIN                                                                  12/01/2005 19:02:46 PAGE 4   

  75      =2  sbit  SM1    =   S0CON^6;
  76      =2  sbit  SM2    =   S0CON^5;
  77      =2  sbit  REN    =   S0CON^4;
  78      =2  sbit  TB8    =   S0CON^3;
  79      =2  sbit  RB8    =   S0CON^2;
  80      =2  sbit  TI     =   S0CON^1;
  81      =2  sbit  RI     =   S0CON^0;
  82      =2  
  83      =2  sbit  CR2    =   S1CON^7;
  84      =2  sbit  ENS1   =   S1CON^6;
  85      =2  sbit  STA    =   S1CON^5;
  86      =2  sbit  STO    =   S1CON^4;
  87      =2  sbit  SI     =   S1CON^3;
  88      =2  sbit  AA     =   S1CON^2;
  89      =2  sbit  CR1    =   S1CON^1;
  90      =2  sbit  CR0    =   S1CON^0;
  91      =2  
  92      =2  sfr  SBUF    =   0x99;                   
  93      =2  
  94      =2  sfr  P2      =   0xA0;                   
  95      =2  
  96      =2  sbit  AD15    =   P2^7;
  97      =2  sbit  AD14    =   P2^6;
  98      =2  sbit  AD13    =   P2^5;
  99      =2  sbit  AD12    =   P2^4;
 100      =2  sbit  AD11    =   P2^3;
 101      =2  sbit  AD10    =   P2^2;
 102      =2  sbit  AD9     =   P2^1;
 103      =2  sbit  AD8     =   P2^0;
 104      =2  
 105      =2  
 106      =2  sbit  P27    =   P2^7;
 107      =2  sbit  P26    =   P2^6;
 108      =2  sbit  P25    =   P2^5;
 109      =2  sbit  P24    =   P2^4;
 110      =2  sbit  P23    =   P2^3;
 111      =2  sbit  P22    =   P2^2;
 112      =2  sbit  P21    =   P2^1;
 113      =2  sbit  P20    =   P2^0;
 114      =2  
 115      =2  
 116      =2  sfr  IEN0    =   0xA8;
 117      =2  
 118      =2  sbit  EA     =   IEN0^7;
 119      =2  sbit  EC     =   IEN0^6;
 120      =2  sbit  ES1    =   IEN0^5;
 121      =2  sbit  ES0    =   IEN0^4;
 122      =2  sbit  ET1    =   IEN0^3;
 123      =2  sbit  EX1    =   IEN0^2;
 124      =2  sbit  ET0    =   IEN0^1;
 125      =2  sbit  EX0    =   IEN0^0;
 126      =2  
 127      =2  sfr IEN1        = 0xE8;
 128      =2  
 129      =2  sbit  ET2    =   IEN1^0;
 130      =2  
 131      =2  
 132      =2  sfr  SADDR   =   0xA9;                   
 133      =2  
 134      =2  sfr  P3      =   0xB0;                   
 135      =2  
 136      =2  sbit  RD      =   P3^7;
C51 COMPILER V7.06   MAIN                                                                  12/01/2005 19:02:46 PAGE 5   

 137      =2  sbit  WR      =   P3^6;
 138      =2  sbit  T1      =   P3^5;
 139      =2  sbit  T0      =   P3^4;
 140      =2  sbit  INT1    =   P3^3;
 141      =2  sbit  INT0    =   P3^2;
 142      =2  sbit  TXD     =   P3^1;
 143      =2  sbit  RXD     =   P3^0;
 144      =2  
 145      =2  sfr  IPH      =   0xB7;                      
 146      =2  sfr  IP       =   0xB8;
 147      =2  
 148      =2  
 149      =2  sfr  SADEN   =   0xB9;                   
 150      =2          
 151      =2  
 152      =2  sbit  PT2      =   IP^7;
 153      =2  sbit  PPC      =   IP^6;
 154      =2  sbit  PS1      =   IP^5;
 155      =2  sbit  PS0      =   IP^4;
 156      =2  sbit  PT1      =   IP^3;
 157      =2  sbit  PX1      =   IP^2;
 158      =2  sbit  PT0      =   IP^2;
 159      =2  sbit  PX0      =   IP^2;
 160      =2  
 161      =2  sfr  T2CON   =   0xC8;             
 162      =2  
 163      =2  sbit  TF2    =   T2CON^7;
 164      =2  sbit  EXF2   =   T2CON^6;
 165      =2  sbit  RCLK   =   T2CON^5;
 166      =2  sbit  TCLK   =   T2CON^4;
 167      =2  sbit  EXEN2  =   T2CON^3;
 168      =2  sbit  TR2    =   T2CON^2;
 169      =2  sbit  CT2    =   T2CON^1;
 170      =2  sbit  CP     =   T2CON^0;
 171      =2  
 172      =2  sfr  T2MOD   =   0xC9;                   
 173      =2  
 174      =2  sfr  RCAP2L  =   0xCA;                   
 175      =2  sfr  RCAP2H  =   0xCB;                   
 176      =2  sfr  TL2     =   0xCC;                   
 177      =2  sfr  TH2     =   0xCD;                   
 178      =2  
 179      =2  sfr  PSW     =   0xD0;                   
 180      =2  sbit  CY     =   PSW^7;
 181      =2  sbit  AC     =   PSW^6;
 182      =2  sbit  F0     =   PSW^5;
 183      =2  sbit  RS1    =   PSW^4;
 184      =2  sbit  RS0    =   PSW^3;
 185      =2  sbit  OV     =   PSW^2;
 186      =2  sbit  UD     =   PSW^1;
 187      =2  sbit  P      =   PSW^0;
 188      =2  
 189      =2                           
 190      =2  sfr  ACC     =   0xE0;                   
 191      =2  sfr  B       =   0xF0;                   
 192      =2  
 193      =2  sfr  CCON    =   0xC0;  
 194      =2  sbit  CF     =   CCON^7;
 195      =2  sbit  CR     =   CCON^6;
 196      =2  sbit  CCF4   =   CCON^4;
 197      =2  sbit  CCF3   =   CCON^3;
 198      =2  sbit  CCF2   =   CCON^2;
C51 COMPILER V7.06   MAIN                                                                  12/01/2005 19:02:46 PAGE 6   

 199      =2  sbit  CCF1   =   CCON^1;
 200      =2  sbit  CCF0   =   CCON^0;                 
 201      =2  
 202      =2  sfr  CMOD    =   0xC1;                   
 203      =2  sfr  CCAPM0  =   0xC2;                   
 204      =2  sfr  CCAPM1  =   0xC3;                   
 205      =2  sfr  CCAPM2  =   0xC4;                   
 206      =2  sfr  CCAPM3  =   0xC5;                   
 207      =2  sfr  CCAPM4  =   0xC6;  
 208      =2  
 209      =2  sfr  CL      =   0xE9;                   
 210      =2  sfr  CCAP0L  =   0xEA;                   
 211      =2  sfr  CCAP1L  =   0xEB;                   
 212      =2  sfr  CCAP2L  =   0xEC;                   
 213      =2  sfr  CCAP3L  =   0xED;                   
 214      =2  sfr  CCAP4L  =   0xEE;                   
 215      =2  
 216      =2  sfr  CH      =   0xF9;                   
 217      =2  sfr  CCAP0H  =   0xFA;                   
 218      =2  sfr  CCAP1H  =   0xFB;                    
 219      =2  sfr  CCAP2H  =   0xFC;                   
 220      =2  sfr  CCAP3H  =   0xFD;                   
 221      =2  sfr  CCAP4H  =   0xFE;  
 222      =2  
 223      =2  
 224      =2  
 225      =2  sfr AUXR        = 0x8E;
 226      =2  sfr AUXR1       = 0xA2;
 227      =2  
 228      =2  sfr     S1DAT   =       0xDA;
 229      =2  sfr     S1IST   =       0xDC;
 230      =2  sfr     S1ADR   =       0xDB;
 231      =2  sfr     S1STA   =       0xD9;
 232      =2  
 233      =2  sfr     WDTRST =       0xA6;
   5      =1  #include <stdio.h>
   1      =2  /*--------------------------------------------------------------------------
   2      =2  STDIO.H
   3      =2  
   4      =2  Prototypes for standard I/O functions.
   5      =2  Copyright (c) 1988-2002 Keil Elektronik GmbH and Keil Software, Inc.
   6      =2  All rights reserved.
   7      =2  --------------------------------------------------------------------------*/
   8      =2  
   9      =2  #ifndef __STDIO_H__
           =2 #define __STDIO_H__
           =2 
           =2 #ifndef EOF
           =2  #define EOF -1
           =2 #endif
           =2 
           =2 #ifndef NULL
           =2  #define NULL ((void *) 0)
           =2 #endif
           =2 
           =2 #ifndef _SIZE_T
           =2  #define _SIZE_T
           =2  typedef unsigned int size_t;
           =2 #endif
           =2 
           =2 #pragma SAVE
           =2 #pragma REGPARMS
C51 COMPILER V7.06   MAIN                                                                  12/01/2005 19:02:46 PAGE 7   

           =2 extern char _getkey (void);
           =2 extern char getchar (void);
           =2 extern char ungetchar (char);
           =2 extern char putchar (char);
           =2 extern int printf   (const char *, ...);
           =2 extern int sprintf  (char *, const char *, ...);
           =2 extern int vprintf  (const char *, char *);
           =2 extern int vsprintf (char *, const char *, char *);
           =2 extern char *gets (char *, int n);
           =2 extern int scanf (const char *, ...);
           =2 extern int sscanf (char *, const char *, ...);
           =2 extern int puts (const char *);
           =2 
           =2 #pragma RESTORE
           =2 
           =2 #endif
  43      =2  
   6      =1  #include <string.h>
   1      =2  /*--------------------------------------------------------------------------
   2      =2  STRING.H
   3      =2  
   4      =2  String functions.
   5      =2  Copyright (c) 1988-2002 Keil Elektronik GmbH and Keil Software, Inc.
   6      =2  All rights reserved.
   7      =2  --------------------------------------------------------------------------*/
   8      =2  
   9      =2  #ifndef __STRING_H__
           =2 #define __STRING_H__
           =2 
           =2 #ifndef _SIZE_T
           =2  #define _SIZE_T
           =2  typedef unsigned int size_t;
           =2 #endif
           =2 
           =2 #ifndef NULL
           =2  #define NULL ((void *) 0L)
           =2 #endif
           =2 
           =2 #pragma SAVE
           =2 #pragma REGPARMS
           =2 extern char *strcat (char *s1, char *s2);
           =2 extern char *strncat (char *s1, char *s2, int n);
           =2 
           =2 extern char strcmp (char *s1, char *s2);
           =2 extern char strncmp (char *s1, char *s2, int n);
           =2 
           =2 extern char *strcpy (char *s1, char *s2);
           =2 extern char *strncpy (char *s1, char *s2, int n);
           =2 
           =2 extern int strlen (char *);
           =2 
           =2 extern char *strchr (const char *s, char c);
           =2 extern int strpos (const char *s, char c);
           =2 extern char *strrchr (const char *s, char c);
           =2 extern int strrpos (const char *s, char c);
           =2 
           =2 extern int strspn (char *s, char *set);
           =2 extern int strcspn (char *s, char *set);
           =2 extern char *strpbrk (char *s, char *set);
           =2 extern char *strrpbrk (char *s, char *set);
           =2 extern char *strstr  (char *s, char *sub);
           =2 extern char *strtok  (char *str, const char *set);
C51 COMPILER V7.06   MAIN                                                                  12/01/2005 19:02:46 PAGE 8   

           =2 
           =2 extern char memcmp (void *s1, void *s2, int n);
           =2 extern void *memcpy (void *s1, void *s2, int n);
           =2 extern void *memchr (void *s, char val, int n);
           =2 extern void *memccpy (void *s1, void *s2, char val, int n);
           =2 extern void *memmove (void *s1, void *s2, int n);
           =2 extern void *memset  (void *s, char val, int n);
           =2 #pragma RESTORE
           =2 
           =2 #endif
   7      =1  
   8      =1  // Function to initialize the serial port and the UART baudrate.
   9      =1  extern unsigned char xdata Rec_flag;
  10      =1  
  11      =1  extern void com_initialize (void); 
  12      =1  
  13      =1  //putachar: write a character to SBUF or transmission buffer
  14      =1  extern int putachar(char c);
  15      =1  
  16      =1  //putbuf: write string to SBUF or transmission buffer
  17      =1  extern void putbuf (char *pch); 
  18      =1  extern void putlenbuf (char *pch, int len); 
  19      =1  
  20      =1  // Replacement routine for the standard library _getkey routine.
  21      =1  // The getchar and gets functions uses _getkey to read a character.
  22      =1  extern char GetKey (char * C); 
  23      =1  
  24      =1  extern void ClearRcvBuf();
  25      =1  
  26      =1  #endif
  27      =1  
   4          
   5          //#include "mainloop.h"
   6          //#include "isr.h"
   7          //#include "protozlg.h"
   8          //#include "ptk_misc_MessageDigest.h"
   9          //typedef unsigned long dword_t;
  10          typedef unsigned char byte_t;
  11          //typedef unsigned int size_t;
  12          
  13          //extern CONTROL_XFER ControlData;
  14          typedef struct MD5CheckSum
  15          {
  16                  unsigned long int state[4];
  17          }MD5CheckSum;
  18          
  19          void MD5(MD5CheckSum* md5CheckSum, const void* pBuffer, unsigned  int bufferSize);
  20          void MD5_Init(MD5CheckSum* md5CheckSum);
  21          void MD5_Block(MD5CheckSum* md5CheckSum, const void* pBuffer, unsigned int bufferSize);
  22          
  23          void MD5_RemainderBlock(MD5CheckSum* md5CheckSum, const void* pBuffer, unsigned int bufferSize);
  24          
  25          void delay(unsigned int ti);
  26          void int2hex( unsigned long num );
  27          
  28          //Main C function that start the interrupt-driven serial I/O.
  29          
  30          
  31          
  32          //void MD5(MD5CheckSum * md5CheckSum, const void* pBuffer, unsigned int bufferSize);
  33          
  34          
C51 COMPILER V7.06   MAIN                                                                  12/01/2005 19:02:46 PAGE 9   

  35          unsigned char xdata tmpBuf[100];
  36          int xdata tmpcount = 0;
  37          int xdata isusb=0;
  38          unsigned int  number=0;
  39          unsigned char xdata Rec_flag;
  40          unsigned char command;
  41          unsigned char pa[5];
  42          unsigned char xdata windbuf[64];
  43          
  44          /*
  45          //*************************************************************************
  46          //  Public static data
  47          //*************************************************************************
  48          */
  49          MD5CheckSum md5out1;
  50          //extern EPPFLAGS bEPPflags;
  51          //extern unsigned char idata GenEpBuf[];
  52          //extern unsigned char idata EpBuf[];
  53          //unsigned char* buffer;
  54          
  55          
  56          void main (void) 
  57          {
  58   1              
  59   1              // œµÕ≥≥ı ºª
  60   1         delay(1000);
  61   1      
  62   1              P0 = 0xFF;                              //≥ı ºªØI/Oø⁄
  63   1              P1 = 0xFF;
  64   1              P2 = 0xFF;
  65   1              P3 = 0xFF;
  66   1      
  67   1              AUXR = 0x01;                    //setup ex_ram 8K    0x8E  ALE  ‰≥ˆŒﬁ–ß
  68   1      
  69   1              IT0 = 0;                                //≥ı ºªØ÷–∂œ  Tcon.0
  70   1              ///EX0 = 1;//
  71   1              EX0 = 0;                                //  IEN0.0
  72   1              PX0 = 0;//                              //   IP.2
  73   1              Rec_flag = 0;                           
  74   1              
  75   1              EA = 1;
  76   1              
  77   1              
  78   1              com_initialize ();              // initialize COM
  79   1      
  80   1          putbuf("###MCU Runing OK\r\n");//œÚ…œŒªª˙∑¢ÀÕ›      
  81   1          //putbuf("suanfa");
  82   1      /***********************************************************/
  83   1         
  84   1       
  85   1      
  86   1          pa[0]='1';
  87   1              pa[1]='2';
  88   1              pa[2]='3';
  89   1          pa[3]='4';
  90   1          pa[4]='5';
  91   1          MD5(&md5out1,pa, 5);
  92   1          
  93   1          putbuf("md5CheckSum\r\n");
  94   1              
  95   1          int2hex( md5out1.state[0]);
  96   1          putbuf("\r\n");
C51 COMPILER V7.06   MAIN                                                                  12/01/2005 19:02:46 PAGE 10  

  97   1              int2hex( md5out1.state[1]);
  98   1          putbuf("\r\n");
  99   1              int2hex( md5out1.state[2]);
 100   1          putbuf("\r\n");
 101   1              int2hex( md5out1.state[3]);
 102   1          putbuf("\r\n");
 103   1          //putbuf(&md5out);
 104   1          
 105   1          
 106   1      /*****************************************************************/
 107   1      
 108   1              while(1);
 109   1              
 110   1      }
 111          
 112          
 113          
 114          
 115          
 116          
 117          void delay(unsigned int ti)
 118          {
 119   1        unsigned int pti;
 120   1        for(pti=0; pti<ti; pti++)
 121   1          {
 122   2            ;
 123   2            ;
 124   2            ;
 125   2          }
 126   1      }
 127          
 128          
 129          
 130          void int2hex( unsigned long num )
 131          {
 132   1              char s_int[8];
 133   1              int i;
 134   1              for ( i=0; i<8; i++)
 135   1              {
 136   2                      s_int[7-i] = num % 16;
 137   2                      num /= 16;
 138   2                      s_int[7-i] += ( s_int[7-i]<10 ) ? '0' : ('A'-10);
 139   2              /*
 140   2              if ( s_int[8-i]<10 )
 141   2              s_int[8-i]+='0';
 142   2              else
 143   2              sint[8-i]+='A';
 144   2              */
 145   2              }
 146   1           //D12_WriteEndpoint(5, 8, &s_int[0]);
 147   1              for ( i=0; i<8; i++ )
 148   1                      {
 149   2                              putachar( s_int[i] );
 150   2                     
 151   2                      }
 152   1      }
 153          
 154          
 155          unsigned long code MD5_T01 = 0xd76aa478;
 156          unsigned long code MD5_T02 = 0xe8c7b756;
 157          unsigned long code MD5_T03 = 0x242070db;
 158          unsigned long code MD5_T04 = 0xc1bdceee;
C51 COMPILER V7.06   MAIN                                                                  12/01/2005 19:02:46 PAGE 11  

 159          unsigned long code MD5_T05 = 0xf57c0faf;
 160          unsigned long code MD5_T06 = 0x4787c62a;
 161          unsigned long code MD5_T07 = 0xa8304613;
 162          unsigned long code MD5_T08 = 0xfd469501;
 163          unsigned long code MD5_T09 = 0x698098d8;
 164          unsigned long code MD5_T10 = 0x8b44f7af;
 165          unsigned long code MD5_T11 = 0xffff5bb1;
 166          unsigned long code MD5_T12 = 0x895cd7be;
 167          unsigned long code MD5_T13 = 0x6b901122;
 168          unsigned long code MD5_T14 = 0xfd987193;
 169          unsigned long code MD5_T15 = 0xa679438e;
 170          unsigned long code MD5_T16 = 0x49b40821;
 171          
 172          unsigned long code MD5_T17 = 0xf61e2562;
 173          unsigned long code MD5_T18 = 0xc040b340;
 174          unsigned long code MD5_T19 = 0x265e5a51;
 175          unsigned long code MD5_T20 = 0xe9b6c7aa;
 176          unsigned long code MD5_T21 = 0xd62f105d;
 177          unsigned long code MD5_T22 = 0x02441453;
 178          unsigned long code MD5_T23 = 0xd8a1e681;
 179          unsigned long code MD5_T24 = 0xe7d3fbc8;
 180          unsigned long code MD5_T25 = 0x21e1cde6;
 181          unsigned long code MD5_T26 = 0xc33707d6;
 182          unsigned long code MD5_T27 = 0xf4d50d87;
 183          unsigned long code MD5_T28 = 0x455a14ed;
 184          unsigned long code MD5_T29 = 0xa9e3e905;
 185          unsigned long code MD5_T30 = 0xfcefa3f8;
 186          unsigned long code MD5_T31 = 0x676f02d9;
 187          unsigned long code MD5_T32 = 0x8d2a4c8a;
 188          
 189          unsigned long code MD5_T33 = 0xfffa3942;
 190          unsigned long code MD5_T34 = 0x8771f681;
 191          unsigned long code MD5_T35 = 0x6d9d6122;
 192          unsigned long code MD5_T36 = 0xfde5380c;
 193          unsigned long code MD5_T37 = 0xa4beea44;
 194          unsigned long code MD5_T38 = 0x4bdecfa9;
 195          unsigned long code MD5_T39 = 0xf6bb4b60;
 196          unsigned long code MD5_T40 = 0xbebfbc70;
 197          unsigned long code MD5_T41 = 0x289b7ec6;
 198          unsigned long code MD5_T42 = 0xeaa127fa;
 199          unsigned long code MD5_T43 = 0xd4ef3085;
 200          unsigned long code MD5_T44 = 0x04881d05;
 201          unsigned long code MD5_T45 = 0xd9d4d039;
 202          unsigned long code MD5_T46 = 0xe6db99e5;
 203          unsigned long code MD5_T47 = 0x1fa27cf8;
 204          unsigned long code MD5_T48 = 0xc4ac5665;
 205          
 206          unsigned long code MD5_T49 = 0xf4292244;
 207          unsigned long code MD5_T50 = 0x432aff97;
 208          unsigned long code MD5_T51 = 0xab9423a7;
 209          unsigned long code MD5_T52 = 0xfc93a039;
 210          unsigned long code MD5_T53 = 0x655b59c3;
 211          unsigned long code MD5_T54 = 0x8f0ccc92;
 212          unsigned long code MD5_T55 = 0xffeff47d;
 213          unsigned long code MD5_T56 = 0x85845dd1;
 214          unsigned long code MD5_T57 = 0x6fa87e4f;
 215          unsigned long code MD5_T58 = 0xfe2ce6e0;
 216          unsigned long code MD5_T59 = 0xa3014314;
 217          unsigned long code MD5_T60 = 0x4e0811a1;
 218          unsigned long code MD5_T61 = 0xf7537e82;
 219          unsigned long code MD5_T62 = 0xbd3af235;
 220          unsigned long code MD5_T63 = 0x2ad7d2bb;
C51 COMPILER V7.06   MAIN                                                                  12/01/2005 19:02:46 PAGE 12  

 221          unsigned long code MD5_T64 = 0xeb86d391;
 222          
 223          
 224           void MD5_Init(MD5CheckSum* md5CheckSum)
 225          {
 226   1              (*md5CheckSum).state[0] = 0x67452301;
 227   1              
 228   1              (*md5CheckSum).state[1] = 0xefcdab89;
 229   1              
 230   1              (*md5CheckSum).state[2] = 0x98badcfe;
 231   1              
 232   1              (*md5CheckSum).state[3] = 0x10325476;
 233   1      
 234   1          /*(*md5CheckSum).state[0] = 0x01234567;
 235   1              
 236   1              (*md5CheckSum).state[1] = 0x89abcdef;
 237   1              
 238   1              (*md5CheckSum).state[2] = 0xfedcba98;
 239   1              
 240   1              (*md5CheckSum).state[3] = 0x76543210;
 241   1      */
 242   1      }
 243          
 244           unsigned  long MD5_F(unsigned  long bb, unsigned  long cc, unsigned  long dd)
 245          {
 246   1              return ((bb & cc) | (~bb & dd));
 247   1      }
 248          
 249           unsigned  long MD5_G(unsigned  long bb, unsigned  long cc, unsigned  long dd)
 250          {
 251   1              return ((bb & dd) | (cc & ~dd));
 252   1      }
 253          
 254          unsigned  long MD5_H(unsigned  long bb, unsigned  long cc, unsigned  long dd)
 255          {
 256   1              return (bb ^ cc ^ dd);
 257   1      }
 258          
 259           unsigned  long MD5_I(unsigned  long bb, unsigned  long cc, unsigned  long dd)
 260          {
 261   1              return (cc ^ (bb | ~dd));
 262   1      }
 263          
 264           unsigned  long MD5_CYCLIC(unsigned  long w, unsigned  long s)
 265          {
 266   1              return (w << s) | (w >> (32 - s));
 267   1      }
 268          
 269           void MD5_FF(unsigned  long* aa, unsigned  long bb, unsigned  long cc, unsigned  long dd, unsigned  long k
             -, unsigned  long s, unsigned  long t)
 270          {
 271   1              (*aa) = bb + MD5_CYCLIC(((*aa) + MD5_F(bb, cc, dd) + k + t), s);
 272   1      }
 273          
 274           void MD5_GG(unsigned  long* aa, unsigned  long bb, unsigned  long cc, unsigned  long dd, unsigned  long k
             -, unsigned  long s, unsigned  long t)
 275          {
 276   1              (*aa) = bb + MD5_CYCLIC(((*aa) + MD5_G(bb, cc, dd) + k + t), s);
 277   1      }
 278          
 279           void MD5_HH(unsigned  long* aa, unsigned  long bb, unsigned  long cc, unsigned  long dd, unsigned  long k
             -, unsigned  long s, unsigned  long t)
C51 COMPILER V7.06   MAIN                                                                  12/01/2005 19:02:46 PAGE 13  

 280          {
 281   1              (*aa) = bb + MD5_CYCLIC(((*aa) + MD5_H(bb, cc, dd) + k + t), s);
 282   1      }
 283          
 284           void MD5_II(unsigned  long *aa, unsigned  long bb, unsigned  long cc, unsigned  long dd, unsigned  long k
             -, unsigned  long s, unsigned  long t)
 285          {
 286   1              (*aa) = bb + MD5_CYCLIC(((*aa) + MD5_I(bb, cc, dd) + k + t), s);
 287   1      }
 288          
 289           void MD5_Packet(MD5CheckSum* md5CheckSum, const unsigned  long* pPacket)
 290          {
 291   1              unsigned  long aa =(*md5CheckSum).state[0];
 292   1              unsigned  long bb =(*md5CheckSum).state[1];
 293   1              unsigned  long cc =(*md5CheckSum).state[2];
 294   1              unsigned  long dd =(*md5CheckSum).state[3];
 295   1              
 296   1              MD5_FF(&aa, bb, cc, dd, pPacket[0],   7, MD5_T01);
 297   1              MD5_FF(&dd, aa, bb, cc, pPacket[1],  12, MD5_T02);
 298   1              MD5_FF(&cc, dd, aa, bb, pPacket[2],  17, MD5_T03);
 299   1              MD5_FF(&bb, cc, dd, aa, pPacket[3],  22, MD5_T04);
 300   1              MD5_FF(&aa, bb, cc, dd, pPacket[4],   7, MD5_T05);
 301   1              MD5_FF(&dd, aa, bb, cc, pPacket[5],  12, MD5_T06);
 302   1              MD5_FF(&cc, dd, aa, bb, pPacket[6],  17, MD5_T07);
 303   1              MD5_FF(&bb, cc, dd, aa, pPacket[7],  22, MD5_T08);
 304   1              MD5_FF(&aa, bb, cc, dd, pPacket[8],   7, MD5_T09);
 305   1              MD5_FF(&dd, aa, bb, cc, pPacket[9],  12, MD5_T10);
 306   1              MD5_FF(&cc, dd, aa, bb, pPacket[10], 17, MD5_T11);
 307   1              MD5_FF(&bb, cc, dd, aa, pPacket[11], 22, MD5_T12);
 308   1              MD5_FF(&aa, bb, cc, dd, pPacket[12],  7, MD5_T13);
 309   1              MD5_FF(&dd, aa, bb, cc, pPacket[13], 12, MD5_T14);
 310   1              MD5_FF(&cc, dd, aa, bb, pPacket[14], 17, MD5_T15);
 311   1              MD5_FF(&bb, cc, dd, aa, pPacket[15], 22, MD5_T16);
 312   1              
 313   1              MD5_GG(&aa, bb, cc, dd, pPacket[1],   5, MD5_T17);
 314   1              MD5_GG(&dd, aa, bb, cc, pPacket[6],   9, MD5_T18);
 315   1              MD5_GG(&cc, dd, aa, bb, pPacket[11], 14, MD5_T19);
 316   1              MD5_GG(&bb, cc, dd, aa, pPacket[0],  20, MD5_T20);
 317   1              MD5_GG(&aa, bb, cc, dd, pPacket[5],   5, MD5_T21);
 318   1              MD5_GG(&dd, aa, bb, cc, pPacket[10],  9, MD5_T22);
 319   1              MD5_GG(&cc, dd, aa, bb, pPacket[15], 14, MD5_T23);
 320   1              MD5_GG(&bb, cc, dd, aa, pPacket[4],  20, MD5_T24);
 321   1              MD5_GG(&aa, bb, cc, dd, pPacket[9],   5, MD5_T25);
 322   1              MD5_GG(&dd, aa, bb, cc, pPacket[14],  9, MD5_T26);
 323   1              MD5_GG(&cc, dd, aa, bb, pPacket[3],  14, MD5_T27);
 324   1              MD5_GG(&bb, cc, dd, aa, pPacket[8],  20, MD5_T28);
 325   1              MD5_GG(&aa, bb, cc, dd, pPacket[13],  5, MD5_T29);
 326   1              MD5_GG(&dd, aa, bb, cc, pPacket[2],   9, MD5_T30);
 327   1              MD5_GG(&cc, dd, aa, bb, pPacket[7],  14, MD5_T31);
 328   1              MD5_GG(&bb, cc, dd, aa, pPacket[12], 20, MD5_T32);
 329   1              
 330   1              MD5_HH(&aa, bb, cc, dd, pPacket[5],   4, MD5_T33);
 331   1              MD5_HH(&dd, aa, bb, cc, pPacket[8],  11, MD5_T34);
 332   1              MD5_HH(&cc, dd, aa, bb, pPacket[11], 16, MD5_T35);
 333   1              MD5_HH(&bb, cc, dd, aa, pPacket[14], 23, MD5_T36);
 334   1              MD5_HH(&aa, bb, cc, dd, pPacket[1],   4, MD5_T37);
 335   1              MD5_HH(&dd, aa, bb, cc, pPacket[4],  11, MD5_T38);
 336   1              MD5_HH(&cc, dd, aa, bb, pPacket[7],  16, MD5_T39);
 337   1              MD5_HH(&bb, cc, dd, aa, pPacket[10], 23, MD5_T40);
 338   1              MD5_HH(&aa, bb, cc, dd, pPacket[13],  4, MD5_T41);
 339   1              MD5_HH(&dd, aa, bb, cc, pPacket[0],  11, MD5_T42);
 340   1              MD5_HH(&cc, dd, aa, bb, pPacket[3],  16, MD5_T43);
C51 COMPILER V7.06   MAIN                                                                  12/01/2005 19:02:46 PAGE 14  

 341   1              MD5_HH(&bb, cc, dd, aa, pPacket[6],  23, MD5_T44);
 342   1              MD5_HH(&aa, bb, cc, dd, pPacket[9],   4, MD5_T45);
 343   1              MD5_HH(&dd, aa, bb, cc, pPacket[12], 11, MD5_T46);
 344   1              MD5_HH(&cc, dd, aa, bb, pPacket[15], 16, MD5_T47);
 345   1              MD5_HH(&bb, cc, dd, aa, pPacket[2],  23, MD5_T48);
 346   1              
 347   1              MD5_II(&aa, bb, cc, dd, pPacket[0],   6, MD5_T49);
 348   1              MD5_II(&dd, aa, bb, cc, pPacket[7],  10, MD5_T50);
 349   1              MD5_II(&cc, dd, aa, bb, pPacket[14], 15, MD5_T51);
 350   1              MD5_II(&bb, cc, dd, aa, pPacket[5],  21, MD5_T52);
 351   1              MD5_II(&aa, bb, cc, dd, pPacket[12],  6, MD5_T53);
 352   1              MD5_II(&dd, aa, bb, cc, pPacket[3],  10, MD5_T54);
 353   1              MD5_II(&cc, dd, aa, bb, pPacket[10], 15, MD5_T55);
 354   1              MD5_II(&bb, cc, dd, aa, pPacket[1],  21, MD5_T56);
 355   1              MD5_II(&aa, bb, cc, dd, pPacket[8],   6, MD5_T57);
 356   1              MD5_II(&dd, aa, bb, cc, pPacket[15], 10, MD5_T58);
 357   1              MD5_II(&cc, dd, aa, bb, pPacket[6],  15, MD5_T59);
 358   1              MD5_II(&bb, cc, dd, aa, pPacket[13], 21, MD5_T60);
 359   1              MD5_II(&aa, bb, cc, dd, pPacket[4],   6, MD5_T61);
 360   1              MD5_II(&dd, aa, bb, cc, pPacket[11], 10, MD5_T62);
 361   1              MD5_II(&cc, dd, aa, bb, pPacket[2],  15, MD5_T63);
 362   1              MD5_II(&bb, cc, dd, aa, pPacket[9],  21, MD5_T64);
 363   1              
 364   1              
 365   1              (*md5CheckSum).state[0] += aa;
 366   1              (*md5CheckSum).state[1] += bb;
 367   1              (*md5CheckSum).state[2] += cc;
 368   1              (*md5CheckSum).state[3] += dd;
 369   1      }
 370          
 371          void MD5_Block(MD5CheckSum* md5CheckSum, const void* pBuffer, unsigned int bufferSize)
 372          {
 373   1              unsigned  char* pSrc = (byte_t*)pBuffer;
 374   1          unsigned  char packet[64];
 375   1              unsigned  int count = bufferSize/64;
 376   1              unsigned   int i;
 377   1              for(i = 0; i < count; ++i)
 378   1              {
 379   2                      memcpy(packet, pSrc, 64);
 380   2                      MD5_Packet(md5CheckSum, (unsigned  long*)packet);
 381   2                      pSrc += 64;
 382   2              }
 383   1      }
 384          
 385          void MD5_RemainderBlock(MD5CheckSum* md5CheckSum, 
 386                                                          const void* pBuffer, 
 387                                                          unsigned  int bufferSize)
 388          {
 389   1              byte_t packet[64];
 390   1              //size_t remainder = bufferSize % 64;   
 391   1          unsigned int remainder = bufferSize % 64;   
 392   1              byte_t* pSrc = (byte_t*)pBuffer + bufferSize - remainder;
 393   1      
 394   1              if(remainder < 56)
 395   1              {
 396   2                      memcpy(packet, pSrc, remainder);
 397   2                      packet[remainder] = 0x80;
 398   2                      memset(&packet[remainder+1], 0, 56 - remainder - 1);
 399   2                  *((unsigned long int*)&packet[60]) = bufferSize >> 29;
 400   2                      *((unsigned long int*)&packet[56]) = bufferSize << 3;//packet[56]=buffersize*8
 401   2                      MD5_Packet(md5CheckSum, (unsigned  long*)packet);
 402   2              }
C51 COMPILER V7.06   MAIN                                                                  12/01/2005 19:02:46 PAGE 15  

 403   1              else
 404   1              {
 405   2                      memcpy(packet, pSrc, remainder);
 406   2                      packet[remainder] = 0x80;
 407   2                      memset(&packet[remainder+1], 0, 64 - remainder - 1);
 408   2                      MD5_Packet(md5CheckSum, (unsigned long*)packet);
 409   2                      memset(packet, 0, 56);
 410   2                      *((unsigned long int*)&packet[60]) = bufferSize >> 29;
 411   2                      *((unsigned long int*)&packet[56]) = bufferSize << 3;//packet[56]=buffersize*8
 412   2                      MD5_Packet(md5CheckSum, (unsigned  long*)packet);
 413   2              }
 414   1      }
 415          
 416          
 417          void MD5(MD5CheckSum* md5CheckSum, const void* pBuffer, unsigned  int bufferSize)
 418          {
 419   1              MD5_Init(md5CheckSum);
 420   1              MD5_Block(md5CheckSum, pBuffer, bufferSize);
 421   1              MD5_RemainderBlock(md5CheckSum, pBuffer, bufferSize);
 422   1      }
 423          
C51 COMPILER V7.06   MAIN                                                                  12/01/2005 19:02:46 PAGE 16  

ASSEMBLY LISTING OF GENERATED OBJECT CODE


             ; FUNCTION main (BEGIN)
                                           ; SOURCE LINE # 56
                                           ; SOURCE LINE # 57
                                           ; SOURCE LINE # 60
0000 7FE8              MOV     R7,#0E8H
0002 7E03              MOV     R6,#03H
0004 120000      R     LCALL   _delay
                                           ; SOURCE LINE # 62
0007 7580FF            MOV     P0,#0FFH
                                           ; SOURCE LINE # 63
000A 7590FF            MOV     P1,#0FFH
                                           ; SOURCE LINE # 64
000D 75A0FF            MOV     P2,#0FFH
                                           ; SOURCE LINE # 65
0010 75B0FF            MOV     P3,#0FFH
                                           ; SOURCE LINE # 67
0013 758E01            MOV     AUXR,#01H
                                           ; SOURCE LINE # 69
0016 C288              CLR     IT0
                                           ; SOURCE LINE # 71
0018 C2A8              CLR     EX0
                                           ; SOURCE LINE # 72
001A C2BA              CLR     PX0
                                           ; SOURCE LINE # 73
001C E4                CLR     A
001D 900000      R     MOV     DPTR,#Rec_flag
0020 F0                MOVX    @DPTR,A
                                           ; SOURCE LINE # 75
0021 D2AF              SETB    EA
                                           ; SOURCE LINE # 78
0023 120000      E     LCALL   com_initialize
                                           ; SOURCE LINE # 80
0026 7BFF              MOV     R3,#0FFH
0028 7A00        R     MOV     R2,#HIGH ?SC_0
002A 7900        R     MOV     R1,#LOW ?SC_0
002C 120000      E     LCALL   _putbuf
                                           ; SOURCE LINE # 86
002F 7800        R     MOV     R0,#LOW pa
0031 7431              MOV     A,#031H
0033 F2                MOVX    @R0,A
                                           ; SOURCE LINE # 87
0034 08                INC     R0
0035 04                INC     A
0036 F2                MOVX    @R0,A
                                           ; SOURCE LINE # 88
0037 08                INC     R0
0038 04                INC     A
0039 F2                MOVX    @R0,A
                                           ; SOURCE LINE # 89
003A 08                INC     R0
003B 04                INC     A
003C F2                MOVX    @R0,A
                                           ; SOURCE LINE # 90
003D 08                INC     R0
003E 04                INC     A
003F F2                MOVX    @R0,A
                                           ; SOURCE LINE # 91
0040 7800        R     MOV     R0,#LOW ?_MD5?BYTE+03H
0042 74FE              MOV     A,#0FEH
C51 COMPILER V7.06   MAIN                                                                  12/01/2005 19:02:46 PAGE 17  

0044 F2                MOVX    @R0,A
0045 08                INC     R0
0046 7400        R     MOV     A,#HIGH pa
0048 F2                MOVX    @R0,A
0049 08                INC     R0
004A 7400        R     MOV     A,#LOW pa
004C F2                MOVX    @R0,A
004D 08                INC     R0
004E E4                CLR     A
004F F2                MOVX    @R0,A
0050 08                INC     R0
0051 7405              MOV     A,#05H
0053 F2                MOVX    @R0,A
0054 7BFE              MOV     R3,#0FEH
0056 7A00        R     MOV     R2,#HIGH md5out1
0058 7900        R     MOV     R1,#LOW md5out1
005A 120000      R     LCALL   _MD5
                                           ; SOURCE LINE # 93
005D 7BFF              MOV     R3,#0FFH
005F 7A00        R     MOV     R2,#HIGH ?SC_19
0061 7900        R     MOV     R1,#LOW ?SC_19
0063 120000      E     LCALL   _putbuf
                                           ; SOURCE LINE # 95
0066 7800        R     MOV     R0,#LOW md5out1
0068 120000      R     LCALL   L?0052
                                           ; SOURCE LINE # 96
006B 7BFF              MOV     R3,#0FFH
006D 7A00        R     MOV     R2,#HIGH ?SC_33
006F 7900        R     MOV     R1,#LOW ?SC_33
0071 120000      E     LCALL   _putbuf
                                           ; SOURCE LINE # 97
0074 7800        R     MOV     R0,#LOW md5out1+04H
0076 120000      R     LCALL   L?0052
                                           ; SOURCE LINE # 98
0079 7BFF              MOV     R3,#0FFH
007B 7A00        R     MOV     R2,#HIGH ?SC_33
007D 7900        R     MOV     R1,#LOW ?SC_33
007F 120000      E     LCALL   _putbuf
                                           ; SOURCE LINE # 99
0082 7800        R     MOV     R0,#LOW md5out1+08H
0084 120000      R     LCALL   L?0053
                                           ; SOURCE LINE # 100
0087 7BFF              MOV     R3,#0FFH
0089 7A00        R     MOV     R2,#HIGH ?SC_33
008B 7900        R     MOV     R1,#LOW ?SC_33
008D 120000      E     LCALL   _putbuf
                                           ; SOURCE LINE # 101
0090 7800        R     MOV     R0,#LOW md5out1+0CH
0092 120000      R     LCALL   L?0053
                                           ; SOURCE LINE # 102
0095 7BFF              MOV     R3,#0FFH
0097 7A00        R     MOV     R2,#HIGH ?SC_33
0099 7900        R     MOV     R1,#LOW ?SC_33
009B 120000      E     LCALL   _putbuf
009E         ?C0001:
                                           ; SOURCE LINE # 108
009E 80FE              SJMP    ?C0001
             ; FUNCTION main (END)

             ; FUNCTION _delay (BEGIN)
                                           ; SOURCE LINE # 117
;---- Variable 'ti' assigned to Register 'R6/R7' ----
C51 COMPILER V7.06   MAIN                                                                  12/01/2005 19:02:46 PAGE 18  

                                           ; SOURCE LINE # 118
                                           ; SOURCE LINE # 120
;---- Variable 'pti' assigned to Register 'R4/R5' ----
0000 E4                CLR     A
0001 FD                MOV     R5,A
0002 FC                MOV     R4,A
0003         ?C0004:
0003 C3                CLR     C
0004 ED                MOV     A,R5
0005 9F                SUBB    A,R7
0006 EC                MOV     A,R4
0007 9E                SUBB    A,R6
0008 5007              JNC     ?C0007
                                           ; SOURCE LINE # 121
                                           ; SOURCE LINE # 125
000A 0D                INC     R5
000B BD0001            CJNE    R5,#00H,?C0036
000E 0C                INC     R4
000F         ?C0036:
000F 80F2              SJMP    ?C0004
                                           ; SOURCE LINE # 126
0011         ?C0007:
0011 22                RET     
             ; FUNCTION _delay (END)

             ; FUNCTION L?0052 (BEGIN)
0000         L?0053:
0000 E2                MOVX    A,@R0
0001 FC                MOV     R4,A
0002 08                INC     R0
0003 E2                MOVX    A,@R0
0004 FD                MOV     R5,A
0005 08                INC     R0
0006 E2                MOVX    A,@R0
0007 FE                MOV     R6,A
0008 08                INC     R0
0009 E2                MOVX    A,@R0
000A FF                MOV     R7,A
             ; FUNCTION _int2hex (BEGIN)
                                           ; SOURCE LINE # 130
000B 7800        R     MOV     R0,#LOW num
000D 120000      E     LCALL   ?C?LSTPDATA
                                           ; SOURCE LINE # 131
                                           ; SOURCE LINE # 134
0010 E4                CLR     A
0011 7800        R     MOV     R0,#LOW i
0013 F2                MOVX    @R0,A
0014 08                INC     R0
0015 F2                MOVX    @R0,A
0016         ?C0008:
                                           ; SOURCE LINE # 135
                                           ; SOURCE LINE # 136
0016 7800        R     MOV     R0,#LOW num
0018 08                INC     R0
0019 08                INC     R0
001A 08                INC     R0
001B E2                MOVX    A,@R0
001C 540F              ANL     A,#0FH
001E FF                MOV     R7,A
001F 7800        R     MOV     R0,#LOW i+01H
0021 E2                MOVX    A,@R0
0022 FE                MOV     R6,A
C51 COMPILER V7.06   MAIN                                                                  12/01/2005 19:02:46 PAGE 19  

0023 C3                CLR     C
0024 7407              MOV     A,#07H
0026 9E                SUBB    A,R6
0027 2400        R     ADD     A,#LOW s_int
0029 F8                MOV     R0,A
002A EF                MOV     A,R7
002B F2                MOVX    @R0,A
                                           ; SOURCE LINE # 137
002C 7800        R     MOV     R0,#LOW num
002E E2                MOVX    A,@R0
002F FC                MOV     R4,A
0030 08                INC     R0
0031 E2                MOVX    A,@R0
0032 FD                MOV     R5,A
0033 08                INC     R0
0034 E2                MOVX    A,@R0
0035 FE                MOV     R6,A
0036 08                INC     R0
0037 E2                MOVX    A,@R0
0038 FF                MOV     R7,A
0039 E4                CLR     A
003A 7B10              MOV     R3,#010H
003C FA                MOV     R2,A
003D F9                MOV     R1,A
003E F8                MOV     R0,A
003F 120000      E     LCALL   ?C?ULDIV
0042 7800        R     MOV     R0,#LOW num
0044 120000      E     LCALL   ?C?LSTPDATA
                                           ; SOURCE LINE # 138
0047 7800        R     MOV     R0,#LOW i+01H
0049 E2                MOVX    A,@R0
004A FF                MOV     R7,A
004B C3                CLR     C
004C 7407              MOV     A,#07H
004E 9F                SUBB    A,R7
004F FF                MOV     R7,A
0050 2400        R     ADD     A,#LOW s_int
0052 F8                MOV     R0,A
0053 E2                MOVX    A,@R0
0054 C3                CLR     C
0055 6480              XRL     A,#080H
0057 948A              SUBB    A,#08AH
0059 5004              JNC     ?C0011
005B 7E30              MOV     R6,#030H
005D 8002              SJMP    ?C0012
005F         ?C0011:
005F 7E37              MOV     R6,#037H
0061         ?C0012:
0061 7400        R     MOV     A,#LOW s_int
0063 2F                ADD     A,R7
0064 F8                MOV     R0,A
0065 E2                MOVX    A,@R0
0066 2E                ADD     A,R6
0067 F2                MOVX    @R0,A
                                           ; SOURCE LINE # 145
0068 7800        R     MOV     R0,#LOW i+01H
006A E2                MOVX    A,@R0
006B 2401              ADD     A,#01H
006D F2                MOVX    @R0,A
006E 18                DEC     R0
006F E2                MOVX    A,@R0
0070 3400              ADDC    A,#00H
C51 COMPILER V7.06   MAIN                                                                  12/01/2005 19:02:46 PAGE 20  

0072 F2                MOVX    @R0,A
0073 08                INC     R0
0074 E2                MOVX    A,@R0
0075 6408              XRL     A,#08H
0077 7002              JNZ     ?C0037
0079 18                DEC     R0
007A E2                MOVX    A,@R0
007B         ?C0037:
007B 7099              JNZ     ?C0008
007D         ?C0009:
                                           ; SOURCE LINE # 147
007D E4                CLR     A
007E 7800        R     MOV     R0,#LOW i
0080 F2                MOVX    @R0,A
0081 08                INC     R0
0082 F2                MOVX    @R0,A
0083         ?C0013:
                                           ; SOURCE LINE # 148
                                           ; SOURCE LINE # 149
0083 7800        R     MOV     R0,#LOW i+01H
0085 E2                MOVX    A,@R0
0086 2400        R     ADD     A,#LOW s_int
0088 F8                MOV     R0,A
0089 E2                MOVX    A,@R0
008A FF                MOV     R7,A
008B 120000      E     LCALL   _putachar
                                           ; SOURCE LINE # 151
008E 7800        R     MOV     R0,#LOW i+01H
0090 E2                MOVX    A,@R0
0091 2401              ADD     A,#01H
0093 F2                MOVX    @R0,A
0094 18                DEC     R0
0095 E2                MOVX    A,@R0
0096 3400              ADDC    A,#00H
0098 F2                MOVX    @R0,A
0099 C3                CLR     C
009A 08                INC     R0
009B E2                MOVX    A,@R0
009C 9408              SUBB    A,#08H
009E 18                DEC     R0
009F E2                MOVX    A,@R0
00A0 6480              XRL     A,#080H
00A2 9480              SUBB    A,#080H
00A4 40DD              JC      ?C0013
                                           ; SOURCE LINE # 152
00A6         ?C0016:
00A6 22                RET     
             ; FUNCTION _int2hex (END)

             ; FUNCTION _MD5_Init (BEGIN)
                                           ; SOURCE LINE # 224
;---- Variable 'md5CheckSum' assigned to Register 'R1/R2/R3' ----
                                           ; SOURCE LINE # 225
                                           ; SOURCE LINE # 226
0000 120000      E     LCALL   ?C?LSTKPTR
0003 67                DB      067H
0004 45                DB      045H
0005 23                DB      023H
0006 01                DB      01H
                                           ; SOURCE LINE # 228
0007 900004            MOV     DPTR,#04H
000A 120000      E     LCALL   ?C?LSTKOPTR
C51 COMPILER V7.06   MAIN                                                                  12/01/2005 19:02:46 PAGE 21  

000D EF                DB      0EFH
000E CD                DB      0CDH
000F AB                DB      0ABH
0010 89                DB      089H
                                           ; SOURCE LINE # 230
0011 900008            MOV     DPTR,#08H
0014 120000      E     LCALL   ?C?LSTKOPTR
0017 98                DB      098H
0018 BA                DB      0BAH
0019 DC                DB      0DCH
001A FE                DB      0FEH
                                           ; SOURCE LINE # 232
001B 90000C            MOV     DPTR,#0CH
001E 120000      E     LCALL   ?C?LSTKOPTR
0021 10                DB      010H
0022 32                DB      032H
0023 54                DB      054H
0024 76                DB      076H
                                           ; SOURCE LINE # 242
0025 22                RET     
             ; FUNCTION _MD5_Init (END)

             ; FUNCTION _MD5_F (BEGIN)
                                           ; SOURCE LINE # 244
0000 7800        R     MOV     R0,#LOW bb
0002 120000      E     LCALL   ?C?LSTPDATA
                                           ; SOURCE LINE # 245
                                           ; SOURCE LINE # 246
0005 7800        R     MOV     R0,#LOW bb
0007 E2                MOVX    A,@R0
0008 FC                MOV     R4,A
0009 08                INC     R0
000A E2                MOVX    A,@R0
000B FD                MOV     R5,A
000C 08                INC     R0
000D E2                MOVX    A,@R0
000E FE                MOV     R6,A
000F 08                INC     R0
0010 E2                MOVX    A,@R0
0011 FF                MOV     R7,A
0012 120000      E     LCALL   ?C?LNOT
0015 7800        R     MOV     R0,#LOW dd
0017 E2                MOVX    A,@R0
0018 FB                MOV     R3,A
0019 08                INC     R0
001A E2                MOVX    A,@R0
001B F9                MOV     R1,A
001C 08                INC     R0
001D E2                MOVX    A,@R0
001E FA                MOV     R2,A
001F 08                INC     R0
0020 E2                MOVX    A,@R0
0021 CB                XCH     A,R3
0022 F8                MOV     R0,A
0023 EB                MOV     A,R3
0024 5F                ANL     A,R7
0025 FF                MOV     R7,A
0026 EA                MOV     A,R2
0027 5E                ANL     A,R6
0028 FE                MOV     R6,A
0029 E9                MOV     A,R1
002A 5D                ANL     A,R5
C51 COMPILER V7.06   MAIN                                                                  12/01/2005 19:02:46 PAGE 22  

002B FD                MOV     R5,A
002C E8                MOV     A,R0
002D 5C                ANL     A,R4
002E FC                MOV     R4,A
002F C004              PUSH    AR4
0031 C005              PUSH    AR5
0033 C006              PUSH    AR6
0035 C007              PUSH    AR7
0037 7800        R     MOV     R0,#LOW cc
0039 E2                MOVX    A,@R0
003A FC                MOV     R4,A
003B 08                INC     R0
003C E2                MOVX    A,@R0
003D FD                MOV     R5,A
003E 08                INC     R0
003F E2                MOVX    A,@R0
0040 FE                MOV     R6,A
0041 08                INC     R0
0042 E2                MOVX    A,@R0
0043 FF                MOV     R7,A
0044 7800        R     MOV     R0,#LOW bb
0046 E2                MOVX    A,@R0
0047 FB                MOV     R3,A
0048 08                INC     R0
0049 E2                MOVX    A,@R0
004A F9                MOV     R1,A
004B 08                INC     R0
004C E2                MOVX    A,@R0
004D FA                MOV     R2,A
004E 08                INC     R0
004F E2                MOVX    A,@R0
0050 CB                XCH     A,R3
0051 F8                MOV     R0,A
0052 EB                MOV     A,R3
0053 5F                ANL     A,R7
0054 FF                MOV     R7,A
0055 EA                MOV     A,R2
0056 5E                ANL     A,R6
0057 FE                MOV     R6,A
0058 E9                MOV     A,R1
0059 5D                ANL     A,R5
005A FD                MOV     R5,A
005B E8                MOV     A,R0
005C 5C                ANL     A,R4
005D FC                MOV     R4,A
005E D003              POP     AR3
0060 D002              POP     AR2
0062 D001              POP     AR1
0064 D000              POP     AR0
0066 EF                MOV     A,R7
0067 4B                ORL     A,R3
0068 FF                MOV     R7,A
0069 EE                MOV     A,R6
006A 4A                ORL     A,R2
006B FE                MOV     R6,A
006C ED                MOV     A,R5
006D 49                ORL     A,R1
006E FD                MOV     R5,A
006F EC                MOV     A,R4
0070 48                ORL     A,R0
0071 FC                MOV     R4,A
                                           ; SOURCE LINE # 247
C51 COMPILER V7.06   MAIN                                                                  12/01/2005 19:02:46 PAGE 23  

0072         ?C0018:
0072 22                RET     
             ; FUNCTION _MD5_F (END)

             ; FUNCTION _MD5_G (BEGIN)
                                           ; SOURCE LINE # 249
0000 7800        R     MOV     R0,#LOW bb
0002 120000      E     LCALL   ?C?LSTPDATA
                                           ; SOURCE LINE # 250
                                           ; SOURCE LINE # 251
0005 7800        R     MOV     R0,#LOW dd
0007 E2                MOVX    A,@R0
0008 FC                MOV     R4,A
0009 08                INC     R0
000A E2                MOVX    A,@R0
000B FD                MOV     R5,A
000C 08                INC     R0
000D E2                MOVX    A,@R0
000E FE                MOV     R6,A
000F 08                INC     R0
0010 E2                MOVX    A,@R0
0011 FF                MOV     R7,A
0012 120000      E     LCALL   ?C?LNOT
0015 7800        R     MOV     R0,#LOW cc
0017 E2                MOVX    A,@R0
0018 FB                MOV     R3,A
0019 08                INC     R0
001A E2                MOVX    A,@R0
001B F9                MOV     R1,A
001C 08                INC     R0
001D E2                MOVX    A,@R0
001E FA                MOV     R2,A
001F 08                INC     R0
0020 E2                MOVX    A,@R0
0021 CB                XCH     A,R3
0022 F8                MOV     R0,A
0023 EB                MOV     A,R3
0024 5F                ANL     A,R7
0025 FF                MOV     R7,A
0026 EA                MOV     A,R2
0027 5E                ANL     A,R6
0028 FE                MOV     R6,A
0029 E9                MOV     A,R1
002A 5D                ANL     A,R5
002B FD                MOV     R5,A
002C E8                MOV     A,R0
002D 5C                ANL     A,R4
002E FC                MOV     R4,A
002F C004              PUSH    AR4
0031 C005              PUSH    AR5
0033 C006              PUSH    AR6
0035 C007              PUSH    AR7
0037 7800        R     MOV     R0,#LOW dd
0039 E2                MOVX    A,@R0
003A FC                MOV     R4,A
003B 08                INC     R0
003C E2                MOVX    A,@R0
003D FD                MOV     R5,A
003E 08                INC     R0
003F E2                MOVX    A,@R0
0040 FE                MOV     R6,A
0041 08                INC     R0
C51 COMPILER V7.06   MAIN                                                                  12/01/2005 19:02:46 PAGE 24  

0042 E2                MOVX    A,@R0
0043 FF                MOV     R7,A
0044 7800        R     MOV     R0,#LOW bb
0046 E2                MOVX    A,@R0
0047 FB                MOV     R3,A
0048 08                INC     R0
0049 E2                MOVX    A,@R0
004A F9                MOV     R1,A
004B 08                INC     R0
004C E2                MOVX    A,@R0
004D FA                MOV     R2,A
004E 08                INC     R0
004F E2                MOVX    A,@R0
0050 CB                XCH     A,R3
0051 F8                MOV     R0,A
0052 EB                MOV     A,R3
0053 5F                ANL     A,R7
0054 FF                MOV     R7,A
0055 EA                MOV     A,R2
0056 5E                ANL     A,R6
0057 FE                MOV     R6,A
0058 E9                MOV     A,R1
0059 5D                ANL     A,R5
005A FD                MOV     R5,A
005B E8                MOV     A,R0
005C 5C                ANL     A,R4
005D FC                MOV     R4,A
005E D003              POP     AR3
0060 D002              POP     AR2
0062 D001              POP     AR1
0064 D000              POP     AR0
0066 EF                MOV     A,R7
0067 4B                ORL     A,R3
0068 FF                MOV     R7,A
0069 EE                MOV     A,R6
006A 4A                ORL     A,R2
006B FE                MOV     R6,A
006C ED                MOV     A,R5
006D 49                ORL     A,R1
006E FD                MOV     R5,A
006F EC                MOV     A,R4
0070 48                ORL     A,R0
0071 FC                MOV     R4,A
                                           ; SOURCE LINE # 252
0072         ?C0019:
0072 22                RET     
             ; FUNCTION _MD5_G (END)

             ; FUNCTION _MD5_H (BEGIN)
                                           ; SOURCE LINE # 254
0000 7800        R     MOV     R0,#LOW bb
0002 120000      E     LCALL   ?C?LSTPDATA
                                           ; SOURCE LINE # 255
                                           ; SOURCE LINE # 256
0005 7800        R     MOV     R0,#LOW cc
0007 E2                MOVX    A,@R0
0008 FC                MOV     R4,A
0009 08                INC     R0
000A E2                MOVX    A,@R0
000B FD                MOV     R5,A
000C 08                INC     R0
000D E2                MOVX    A,@R0
C51 COMPILER V7.06   MAIN                                                                  12/01/2005 19:02:46 PAGE 25  

000E FE                MOV     R6,A
000F 08                INC     R0
0010 E2                MOVX    A,@R0
0011 FF                MOV     R7,A
0012 7800        R     MOV     R0,#LOW bb
0014 E2                MOVX    A,@R0
0015 FB                MOV     R3,A
0016 08                INC     R0
0017 E2                MOVX    A,@R0
0018 F9                MOV     R1,A
0019 08                INC     R0
001A E2                MOVX    A,@R0
001B FA                MOV     R2,A
001C 08                INC     R0
001D E2                MOVX    A,@R0
001E CB                XCH     A,R3
001F F8                MOV     R0,A
0020 EB                MOV     A,R3
0021 6F                XRL     A,R7
0022 FF                MOV     R7,A
0023 EA                MOV     A,R2
0024 6E                XRL     A,R6
0025 FE                MOV     R6,A
0026 E9                MOV     A,R1
0027 6D                XRL     A,R5
0028 FD                MOV     R5,A
0029 E8                MOV     A,R0
002A 6C                XRL     A,R4
002B FC                MOV     R4,A
002C 7800        R     MOV     R0,#LOW dd
002E E2                MOVX    A,@R0
002F FB                MOV     R3,A
0030 08                INC     R0
0031 E2                MOVX    A,@R0
0032 F9                MOV     R1,A
0033 08                INC     R0
0034 E2                MOVX    A,@R0
0035 FA                MOV     R2,A
0036 08                INC     R0
0037 E2                MOVX    A,@R0
0038 CB                XCH     A,R3
0039 F8                MOV     R0,A
003A EB                MOV     A,R3
003B 6F                XRL     A,R7
003C FF                MOV     R7,A
003D EA                MOV     A,R2
003E 6E                XRL     A,R6
003F FE                MOV     R6,A
0040 E9                MOV     A,R1
0041 6D                XRL     A,R5
0042 FD                MOV     R5,A
0043 E8                MOV     A,R0
0044 6C                XRL     A,R4
0045 FC                MOV     R4,A
                                           ; SOURCE LINE # 257
0046         ?C0020:
0046 22                RET     
             ; FUNCTION _MD5_H (END)

             ; FUNCTION _MD5_I (BEGIN)
                                           ; SOURCE LINE # 259
0000 7800        R     MOV     R0,#LOW bb
C51 COMPILER V7.06   MAIN                                                                  12/01/2005 19:02:46 PAGE 26  

0002 120000      E     LCALL   ?C?LSTPDATA
                                           ; SOURCE LINE # 260
                                           ; SOURCE LINE # 261
0005 7800        R     MOV     R0,#LOW dd
0007 E2                MOVX    A,@R0
0008 FC                MOV     R4,A
0009 08                INC     R0
000A E2                MOVX    A,@R0
000B FD                MOV     R5,A
000C 08                INC     R0
000D E2                MOVX    A,@R0
000E FE                MOV     R6,A
000F 08                INC     R0
0010 E2                MOVX    A,@R0
0011 FF                MOV     R7,A
0012 120000      E     LCALL   ?C?LNOT
0015 7800        R     MOV     R0,#LOW bb
0017 E2                MOVX    A,@R0
0018 FB                MOV     R3,A
0019 08                INC     R0
001A E2                MOVX    A,@R0
001B F9                MOV     R1,A
001C 08                INC     R0
001D E2                MOVX    A,@R0
001E FA                MOV     R2,A
001F 08                INC     R0
0020 E2                MOVX    A,@R0
0021 CB                XCH     A,R3
0022 F8                MOV     R0,A
0023 EB                MOV     A,R3
0024 4F                ORL     A,R7
0025 FF                MOV     R7,A
0026 EA                MOV     A,R2
0027 4E                ORL     A,R6
0028 FE                MOV     R6,A
0029 E9                MOV     A,R1
002A 4D                ORL     A,R5
002B FD                MOV     R5,A
002C E8                MOV     A,R0
002D 4C                ORL     A,R4
002E FC                MOV     R4,A
002F 7800        R     MOV     R0,#LOW cc
0031 E2                MOVX    A,@R0
0032 FB                MOV     R3,A
0033 08                INC     R0
0034 E2                MOVX    A,@R0
0035 F9                MOV     R1,A
0036 08                INC     R0
0037 E2                MOVX    A,@R0
0038 FA                MOV     R2,A
0039 08                INC     R0
003A E2                MOVX    A,@R0
003B CB                XCH     A,R3
003C F8                MOV     R0,A
003D EB                MOV     A,R3
003E 6F                XRL     A,R7
003F FF                MOV     R7,A
0040 EA                MOV     A,R2
0041 6E                XRL     A,R6
0042 FE                MOV     R6,A
0043 E9                MOV     A,R1
0044 6D                XRL     A,R5
C51 COMPILER V7.06   MAIN                                                                  12/01/2005 19:02:46 PAGE 27  

0045 FD                MOV     R5,A
0046 E8                MOV     A,R0
0047 6C                XRL     A,R4
0048 FC                MOV     R4,A
                                           ; SOURCE LINE # 262
0049         ?C0021:
0049 22                RET     
             ; FUNCTION _MD5_I (END)

             ; FUNCTION _MD5_CYCLIC (BEGIN)
                                           ; SOURCE LINE # 264
0000 7800        R     MOV     R0,#LOW w
0002 120000      E     LCALL   ?C?LSTPDATA
                                           ; SOURCE LINE # 265
                                           ; SOURCE LINE # 266
0005 7800        R     MOV     R0,#LOW s+03H
0007 E2                MOVX    A,@R0
0008 FF                MOV     R7,A
0009 C3                CLR     C
000A 7420              MOV     A,#020H
000C 9F                SUBB    A,R7
000D F9                MOV     R1,A
000E 7800        R     MOV     R0,#LOW w
0010 E2                MOVX    A,@R0
0011 FC                MOV     R4,A
0012 08                INC     R0
0013 E2                MOVX    A,@R0
0014 FD                MOV     R5,A
0015 08                INC     R0
0016 E2                MOVX    A,@R0
0017 FE                MOV     R6,A
0018 08                INC     R0
0019 E2                MOVX    A,@R0
001A FF                MOV     R7,A
001B A801              MOV     R0,AR1
001D 120000      E     LCALL   ?C?ULSHR
0020 C004              PUSH    AR4
0022 C005              PUSH    AR5
0024 C006              PUSH    AR6
0026 C007              PUSH    AR7
0028 7800        R     MOV     R0,#LOW s+03H
002A E2                MOVX    A,@R0
002B F9                MOV     R1,A
002C 7800        R     MOV     R0,#LOW w
002E E2                MOVX    A,@R0
002F FC                MOV     R4,A
0030 08                INC     R0
0031 E2                MOVX    A,@R0
0032 FD                MOV     R5,A
0033 08                INC     R0
0034 E2                MOVX    A,@R0
0035 FE                MOV     R6,A
0036 08                INC     R0
0037 E2                MOVX    A,@R0
0038 FF                MOV     R7,A
0039 A801              MOV     R0,AR1
003B 120000      E     LCALL   ?C?LSHL
003E D003              POP     AR3
0040 D002              POP     AR2
0042 D001              POP     AR1
0044 D000              POP     AR0
0046 EB                MOV     A,R3
C51 COMPILER V7.06   MAIN                                                                  12/01/2005 19:02:46 PAGE 28  

0047 4F                ORL     A,R7
0048 FF                MOV     R7,A
0049 EA                MOV     A,R2
004A 4E                ORL     A,R6
004B FE                MOV     R6,A
004C E9                MOV     A,R1
004D 4D                ORL     A,R5
004E FD                MOV     R5,A
004F E8                MOV     A,R0
0050 4C                ORL     A,R4
0051 FC                MOV     R4,A
                                           ; SOURCE LINE # 267
0052         ?C0022:
0052 22                RET     
             ; FUNCTION _MD5_CYCLIC (END)

             ; FUNCTION L?0044 (BEGIN)
0000         L?0045:
0000 120000      E     LCALL   ?C?LLDCODE
0003 7800        R     MOV     R0,#LOW ?_MD5_FF?BYTE+017H
0005 120000      E     LCALL   ?C?LSTPDATA
0008 7800        R     MOV     R0,#LOW bb
000A E2                MOVX    A,@R0
000B FC                MOV     R4,A
000C 08                INC     R0
000D E2                MOVX    A,@R0
000E FD                MOV     R5,A
000F 08                INC     R0
0010 E2                MOVX    A,@R0
0011 FE                MOV     R6,A
0012 08                INC     R0
0013 E2                MOVX    A,@R0
0014 FF                MOV     R7,A
0015 7BFE              MOV     R3,#0FEH
0017 7A00        R     MOV     R2,#HIGH aa
0019 7900        R     MOV     R1,#LOW aa
             ; FUNCTION _MD5_FF (BEGIN)
                                           ; SOURCE LINE # 269
001B 7800        R     MOV     R0,#LOW aa
001D EB                MOV     A,R3
001E F2                MOVX    @R0,A
001F 08                INC     R0
0020 EA                MOV     A,R2
0021 F2                MOVX    @R0,A
0022 08                INC     R0
0023 E9                MOV     A,R1
0024 F2                MOVX    @R0,A
0025 08                INC     R0
0026 120000      E     LCALL   ?C?LSTPDATA
                                           ; SOURCE LINE # 270
                                           ; SOURCE LINE # 271
0029 7800        R     MOV     R0,#LOW cc
002B E2                MOVX    A,@R0
002C FC                MOV     R4,A
002D 08                INC     R0
002E E2                MOVX    A,@R0
002F FD                MOV     R5,A
0030 08                INC     R0
0031 E2                MOVX    A,@R0
0032 FE                MOV     R6,A
0033 08                INC     R0
0034 E2                MOVX    A,@R0
C51 COMPILER V7.06   MAIN                                                                  12/01/2005 19:02:46 PAGE 29  

0035 FF                MOV     R7,A
0036 7800        R     MOV     R0,#LOW ?_MD5_F?BYTE+04H
0038 120000      E     LCALL   ?C?LSTPDATA
003B 7800        R     MOV     R0,#LOW dd
003D E2                MOVX    A,@R0
003E FC                MOV     R4,A
003F 08                INC     R0
0040 E2                MOVX    A,@R0
0041 FD                MOV     R5,A
0042 08                INC     R0
0043 E2                MOVX    A,@R0
0044 FE                MOV     R6,A
0045 08                INC     R0
0046 E2                MOVX    A,@R0
0047 FF                MOV     R7,A
0048 7800        R     MOV     R0,#LOW ?_MD5_F?BYTE+08H
004A 120000      E     LCALL   ?C?LSTPDATA
004D 7800        R     MOV     R0,#LOW bb
004F E2                MOVX    A,@R0
0050 FC                MOV     R4,A
0051 08                INC     R0
0052 E2                MOVX    A,@R0
0053 FD                MOV     R5,A
0054 08                INC     R0
0055 E2                MOVX    A,@R0
0056 FE                MOV     R6,A
0057 08                INC     R0
0058 E2                MOVX    A,@R0
0059 FF                MOV     R7,A
005A 120000      R     LCALL   _MD5_F
005D 7800        R     MOV     R0,#LOW aa
005F E2                MOVX    A,@R0
0060 FB                MOV     R3,A
0061 08                INC     R0
0062 E2                MOVX    A,@R0
0063 FA                MOV     R2,A
0064 08                INC     R0
0065 E2                MOVX    A,@R0
0066 F9                MOV     R1,A
0067 120000      E     LCALL   ?C?LLDPTR0
006A EF                MOV     A,R7
006B 2B                ADD     A,R3
006C FF                MOV     R7,A
006D EE                MOV     A,R6
006E 3A                ADDC    A,R2
006F FE                MOV     R6,A
0070 ED                MOV     A,R5
0071 39                ADDC    A,R1
0072 FD                MOV     R5,A
0073 EC                MOV     A,R4
0074 38                ADDC    A,R0
0075 FC                MOV     R4,A
0076 7800        R     MOV     R0,#LOW k
0078 E2                MOVX    A,@R0
0079 FB                MOV     R3,A
007A 08                INC     R0
007B E2                MOVX    A,@R0
007C F9                MOV     R1,A
007D 08                INC     R0
007E E2                MOVX    A,@R0
007F FA                MOV     R2,A
0080 08                INC     R0
C51 COMPILER V7.06   MAIN                                                                  12/01/2005 19:02:46 PAGE 30  

0081 E2                MOVX    A,@R0
0082 CB                XCH     A,R3
0083 F8                MOV     R0,A
0084 EB                MOV     A,R3
0085 2F                ADD     A,R7
0086 FF                MOV     R7,A
0087 EA                MOV     A,R2
0088 3E                ADDC    A,R6
0089 FE                MOV     R6,A
008A E9                MOV     A,R1
008B 3D                ADDC    A,R5
008C FD                MOV     R5,A
008D E8                MOV     A,R0
008E 3C                ADDC    A,R4
008F FC                MOV     R4,A
0090 7800        R     MOV     R0,#LOW t
0092 E2                MOVX    A,@R0
0093 FB                MOV     R3,A
0094 08                INC     R0
0095 E2                MOVX    A,@R0
0096 F9                MOV     R1,A
0097 08                INC     R0
0098 E2                MOVX    A,@R0
0099 FA                MOV     R2,A
009A 08                INC     R0
009B E2                MOVX    A,@R0
009C CB                XCH     A,R3
009D F8                MOV     R0,A
009E EB                MOV     A,R3
009F 2F                ADD     A,R7
00A0 FF                MOV     R7,A
00A1 EA                MOV     A,R2
00A2 3E                ADDC    A,R6
00A3 FE                MOV     R6,A
00A4 E9                MOV     A,R1
00A5 3D                ADDC    A,R5
00A6 FD                MOV     R5,A
00A7 E8                MOV     A,R0
00A8 3C                ADDC    A,R4
00A9 FC                MOV     R4,A
00AA C004              PUSH    AR4
00AC C005              PUSH    AR5
00AE C006              PUSH    AR6
00B0 C007              PUSH    AR7
00B2 7800        R     MOV     R0,#LOW s
00B4 E2                MOVX    A,@R0
00B5 FC                MOV     R4,A
00B6 08                INC     R0
00B7 E2                MOVX    A,@R0
00B8 FD                MOV     R5,A
00B9 08                INC     R0
00BA E2                MOVX    A,@R0
00BB FE                MOV     R6,A
00BC 08                INC     R0
00BD E2                MOVX    A,@R0
00BE FF                MOV     R7,A
00BF 7800        R     MOV     R0,#LOW ?_MD5_CYCLIC?BYTE+04H
00C1 120000      E     LCALL   ?C?LSTPDATA
00C4 D007              POP     AR7
00C6 D006              POP     AR6
00C8 D005              POP     AR5
00CA D004              POP     AR4
C51 COMPILER V7.06   MAIN                                                                  12/01/2005 19:02:46 PAGE 31  

00CC 120000      R     LCALL   _MD5_CYCLIC
00CF 7800        R     MOV     R0,#LOW bb
00D1 E2                MOVX    A,@R0
00D2 FB                MOV     R3,A
00D3 08                INC     R0
00D4 E2                MOVX    A,@R0
00D5 F9                MOV     R1,A
00D6 08                INC     R0
00D7 E2                MOVX    A,@R0
00D8 FA                MOV     R2,A
00D9 08                INC     R0
00DA E2                MOVX    A,@R0
00DB CB                XCH     A,R3
00DC F8                MOV     R0,A
00DD EB                MOV     A,R3
00DE 2F                ADD     A,R7
00DF FF                MOV     R7,A
00E0 EA                MOV     A,R2
00E1 3E                ADDC    A,R6
00E2 FE                MOV     R6,A
00E3 E9                MOV     A,R1
00E4 3D                ADDC    A,R5
00E5 FD                MOV     R5,A
00E6 E8                MOV     A,R0
00E7 3C                ADDC    A,R4
00E8 FC                MOV     R4,A
00E9 7800        R     MOV     R0,#LOW aa
00EB E2                MOVX    A,@R0
00EC FB                MOV     R3,A
00ED 08                INC     R0
00EE E2                MOVX    A,@R0
00EF FA                MOV     R2,A
00F0 08                INC     R0
00F1 E2                MOVX    A,@R0
00F2 F9                MOV     R1,A
00F3 020000      E     LJMP    ?C?LSTPTR
             ; FUNCTION _MD5_FF (END)

             ; FUNCTION L?0046 (BEGIN)
0000         L?0047:
0000 120000      E     LCALL   ?C?LLDCODE
0003 7800        R     MOV     R0,#LOW ?_MD5_GG?BYTE+017H
0005 120000      E     LCALL   ?C?LSTPDATA
0008 7800        R     MOV     R0,#LOW bb
000A E2                MOVX    A,@R0
000B FC                MOV     R4,A
000C 08                INC     R0
000D E2                MOVX    A,@R0
000E FD                MOV     R5,A
000F 08                INC     R0
0010 E2                MOVX    A,@R0
0011 FE                MOV     R6,A
0012 08                INC     R0
0013 E2                MOVX    A,@R0
0014 FF                MOV     R7,A
0015 7BFE              MOV     R3,#0FEH
0017 7A00        R     MOV     R2,#HIGH aa
0019 7900        R     MOV     R1,#LOW aa
             ; FUNCTION _MD5_GG (BEGIN)
                                           ; SOURCE LINE # 274
001B 7800        R     MOV     R0,#LOW aa
001D EB                MOV     A,R3
C51 COMPILER V7.06   MAIN                                                                  12/01/2005 19:02:46 PAGE 32  

001E F2                MOVX    @R0,A
001F 08                INC     R0
0020 EA                MOV     A,R2
0021 F2                MOVX    @R0,A
0022 08                INC     R0
0023 E9                MOV     A,R1
0024 F2                MOVX    @R0,A
0025 08                INC     R0
0026 120000      E     LCALL   ?C?LSTPDATA
                                           ; SOURCE LINE # 275
                                           ; SOURCE LINE # 276
0029 7800        R     MOV     R0,#LOW cc
002B E2                MOVX    A,@R0
002C FC                MOV     R4,A
002D 08                INC     R0
002E E2                MOVX    A,@R0
002F FD                MOV     R5,A
0030 08                INC     R0
0031 E2                MOVX    A,@R0
0032 FE                MOV     R6,A
0033 08                INC     R0
0034 E2                MOVX    A,@R0
0035 FF                MOV     R7,A
0036 7800        R     MOV     R0,#LOW ?_MD5_G?BYTE+04H
0038 120000      E     LCALL   ?C?LSTPDATA
003B 7800        R     MOV     R0,#LOW dd
003D E2                MOVX    A,@R0
003E FC                MOV     R4,A
003F 08                INC     R0
0040 E2                MOVX    A,@R0
0041 FD                MOV     R5,A
0042 08                INC     R0
0043 E2                MOVX    A,@R0
0044 FE                MOV     R6,A
0045 08                INC     R0
0046 E2                MOVX    A,@R0
0047 FF                MOV     R7,A
0048 7800        R     MOV     R0,#LOW ?_MD5_G?BYTE+08H
004A 120000      E     LCALL   ?C?LSTPDATA
004D 7800        R     MOV     R0,#LOW bb
004F E2                MOVX    A,@R0
0050 FC                MOV     R4,A
0051 08                INC     R0
0052 E2                MOVX    A,@R0
0053 FD                MOV     R5,A
0054 08                INC     R0
0055 E2                MOVX    A,@R0
0056 FE                MOV     R6,A
0057 08                INC     R0
0058 E2                MOVX    A,@R0
0059 FF                MOV     R7,A
005A 120000      R     LCALL   _MD5_G
005D 7800        R     MOV     R0,#LOW aa
005F E2                MOVX    A,@R0
0060 FB                MOV     R3,A
0061 08                INC     R0
0062 E2                MOVX    A,@R0
0063 FA                MOV     R2,A
0064 08                INC     R0
0065 E2                MOVX    A,@R0
0066 F9                MOV     R1,A
0067 120000      E     LCALL   ?C?LLDPTR0
C51 COMPILER V7.06   MAIN                                                                  12/01/2005 19:02:46 PAGE 33  

006A EF                MOV     A,R7
006B 2B                ADD     A,R3
006C FF                MOV     R7,A
006D EE                MOV     A,R6
006E 3A                ADDC    A,R2
006F FE                MOV     R6,A
0070 ED                MOV     A,R5
0071 39                ADDC    A,R1
0072 FD                MOV     R5,A
0073 EC                MOV     A,R4
0074 38                ADDC    A,R0
0075 FC                MOV     R4,A
0076 7800        R     MOV     R0,#LOW k
0078 E2                MOVX    A,@R0
0079 FB                MOV     R3,A
007A 08                INC     R0
007B E2                MOVX    A,@R0
007C F9                MOV     R1,A
007D 08                INC     R0
007E E2                MOVX    A,@R0
007F FA                MOV     R2,A
0080 08                INC     R0
0081 E2                MOVX    A,@R0
0082 CB                XCH     A,R3
0083 F8                MOV     R0,A
0084 EB                MOV     A,R3
0085 2F                ADD     A,R7
0086 FF                MOV     R7,A
0087 EA                MOV     A,R2
0088 3E                ADDC    A,R6
0089 FE                MOV     R6,A
008A E9                MOV     A,R1
008B 3D                ADDC    A,R5
008C FD                MOV     R5,A
008D E8                MOV     A,R0
008E 3C                ADDC    A,R4
008F FC                MOV     R4,A
0090 7800        R     MOV     R0,#LOW t
0092 E2                MOVX    A,@R0
0093 FB                MOV     R3,A
0094 08                INC     R0
0095 E2                MOVX    A,@R0
0096 F9                MOV     R1,A
0097 08                INC     R0
0098 E2                MOVX    A,@R0
0099 FA                MOV     R2,A
009A 08                INC     R0
009B E2                MOVX    A,@R0
009C CB                XCH     A,R3
009D F8                MOV     R0,A
009E EB                MOV     A,R3
009F 2F                ADD     A,R7
00A0 FF                MOV     R7,A
00A1 EA                MOV     A,R2
00A2 3E                ADDC    A,R6
00A3 FE                MOV     R6,A
00A4 E9                MOV     A,R1
00A5 3D                ADDC    A,R5
00A6 FD                MOV     R5,A
00A7 E8                MOV     A,R0
00A8 3C                ADDC    A,R4
00A9 FC                MOV     R4,A
C51 COMPILER V7.06   MAIN                                                                  12/01/2005 19:02:46 PAGE 34  

00AA C004              PUSH    AR4
00AC C005              PUSH    AR5
00AE C006              PUSH    AR6
00B0 C007              PUSH    AR7
00B2 7800        R     MOV     R0,#LOW s
00B4 E2                MOVX    A,@R0
00B5 FC                MOV     R4,A
00B6 08                INC     R0
00B7 E2                MOVX    A,@R0
00B8 FD                MOV     R5,A
00B9 08                INC     R0
00BA E2                MOVX    A,@R0
00BB FE                MOV     R6,A
00BC 08                INC     R0
00BD E2                MOVX    A,@R0
00BE FF                MOV     R7,A
00BF 7800        R     MOV     R0,#LOW ?_MD5_CYCLIC?BYTE+04H
00C1 120000      E     LCALL   ?C?LSTPDATA
00C4 D007              POP     AR7
00C6 D006              POP     AR6
00C8 D005              POP     AR5
00CA D004              POP     AR4
00CC 120000      R     LCALL   _MD5_CYCLIC
00CF 7800        R     MOV     R0,#LOW bb
00D1 E2                MOVX    A,@R0
00D2 FB                MOV     R3,A
00D3 08                INC     R0
00D4 E2                MOVX    A,@R0
00D5 F9                MOV     R1,A
00D6 08                INC     R0
00D7 E2                MOVX    A,@R0
00D8 FA                MOV     R2,A
00D9 08                INC     R0
00DA E2                MOVX    A,@R0
00DB CB                XCH     A,R3
00DC F8                MOV     R0,A
00DD EB                MOV     A,R3
00DE 2F                ADD     A,R7
00DF FF                MOV     R7,A
00E0 EA                MOV     A,R2
00E1 3E                ADDC    A,R6
00E2 FE                MOV     R6,A
00E3 E9                MOV     A,R1
00E4 3D                ADDC    A,R5
00E5 FD                MOV     R5,A
00E6 E8                MOV     A,R0
00E7 3C                ADDC    A,R4
00E8 FC                MOV     R4,A
00E9 7800        R     MOV     R0,#LOW aa
00EB E2                MOVX    A,@R0
00EC FB                MOV     R3,A
00ED 08                INC     R0
00EE E2                MOVX    A,@R0
00EF FA                MOV     R2,A
00F0 08                INC     R0
00F1 E2                MOVX    A,@R0
00F2 F9                MOV     R1,A
00F3 020000      E     LJMP    ?C?LSTPTR
             ; FUNCTION _MD5_GG (END)

             ; FUNCTION L?0048 (BEGIN)
0000         L?0049:
C51 COMPILER V7.06   MAIN                                                                  12/01/2005 19:02:46 PAGE 35  

0000 120000      E     LCALL   ?C?LLDCODE
0003 7800        R     MOV     R0,#LOW ?_MD5_HH?BYTE+017H
0005 120000      E     LCALL   ?C?LSTPDATA
0008 7800        R     MOV     R0,#LOW bb
000A E2                MOVX    A,@R0
000B FC                MOV     R4,A
000C 08                INC     R0
000D E2                MOVX    A,@R0
000E FD                MOV     R5,A
000F 08                INC     R0
0010 E2                MOVX    A,@R0
0011 FE                MOV     R6,A
0012 08                INC     R0
0013 E2                MOVX    A,@R0
0014 FF                MOV     R7,A
0015 7BFE              MOV     R3,#0FEH
0017 7A00        R     MOV     R2,#HIGH aa
0019 7900        R     MOV     R1,#LOW aa
             ; FUNCTION _MD5_HH (BEGIN)
                                           ; SOURCE LINE # 279
001B 7800        R     MOV     R0,#LOW aa
001D EB                MOV     A,R3
001E F2                MOVX    @R0,A
001F 08                INC     R0
0020 EA                MOV     A,R2
0021 F2                MOVX    @R0,A
0022 08                INC     R0
0023 E9                MOV     A,R1
0024 F2                MOVX    @R0,A
0025 08                INC     R0
0026 120000      E     LCALL   ?C?LSTPDATA
                                           ; SOURCE LINE # 280
                                           ; SOURCE LINE # 281
0029 7800        R     MOV     R0,#LOW cc
002B E2                MOVX    A,@R0
002C FC                MOV     R4,A
002D 08                INC     R0
002E E2                MOVX    A,@R0
002F FD                MOV     R5,A
0030 08                INC     R0
0031 E2                MOVX    A,@R0
0032 FE                MOV     R6,A
0033 08                INC     R0
0034 E2                MOVX    A,@R0
0035 FF                MOV     R7,A
0036 7800        R     MOV     R0,#LOW ?_MD5_H?BYTE+04H
0038 120000      E     LCALL   ?C?LSTPDATA
003B 7800        R     MOV     R0,#LOW dd
003D E2                MOVX    A,@R0
003E FC                MOV     R4,A
003F 08                INC     R0
0040 E2                MOVX    A,@R0
0041 FD                MOV     R5,A
0042 08                INC     R0
0043 E2                MOVX    A,@R0
0044 FE                MOV     R6,A
0045 08                INC     R0
0046 E2                MOVX    A,@R0
0047 FF                MOV     R7,A
0048 7800        R     MOV     R0,#LOW ?_MD5_H?BYTE+08H
004A 120000      E     LCALL   ?C?LSTPDATA
004D 7800        R     MOV     R0,#LOW bb
C51 COMPILER V7.06   MAIN                                                                  12/01/2005 19:02:46 PAGE 36  

004F E2                MOVX    A,@R0
0050 FC                MOV     R4,A
0051 08                INC     R0
0052 E2                MOVX    A,@R0
0053 FD                MOV     R5,A
0054 08                INC     R0
0055 E2                MOVX    A,@R0
0056 FE                MOV     R6,A
0057 08                INC     R0
0058 E2                MOVX    A,@R0
0059 FF                MOV     R7,A
005A 120000      R     LCALL   _MD5_H
005D 7800        R     MOV     R0,#LOW aa
005F E2                MOVX    A,@R0
0060 FB                MOV     R3,A
0061 08                INC     R0
0062 E2                MOVX    A,@R0
0063 FA                MOV     R2,A
0064 08                INC     R0
0065 E2                MOVX    A,@R0
0066 F9                MOV     R1,A
0067 120000      E     LCALL   ?C?LLDPTR0
006A EF                MOV     A,R7
006B 2B                ADD     A,R3
006C FF                MOV     R7,A
006D EE                MOV     A,R6
006E 3A                ADDC    A,R2
006F FE                MOV     R6,A
0070 ED                MOV     A,R5
0071 39                ADDC    A,R1
0072 FD                MOV     R5,A
0073 EC                MOV     A,R4
0074 38                ADDC    A,R0
0075 FC                MOV     R4,A
0076 7800        R     MOV     R0,#LOW k
0078 E2                MOVX    A,@R0
0079 FB                MOV     R3,A
007A 08                INC     R0
007B E2                MOVX    A,@R0
007C F9                MOV     R1,A
007D 08                INC     R0
007E E2                MOVX    A,@R0
007F FA                MOV     R2,A
0080 08                INC     R0
0081 E2                MOVX    A,@R0
0082 CB                XCH     A,R3
0083 F8                MOV     R0,A
0084 EB                MOV     A,R3
0085 2F                ADD     A,R7
0086 FF                MOV     R7,A
0087 EA                MOV     A,R2
0088 3E                ADDC    A,R6
0089 FE                MOV     R6,A
008A E9                MOV     A,R1
008B 3D                ADDC    A,R5
008C FD                MOV     R5,A
008D E8                MOV     A,R0
008E 3C                ADDC    A,R4
008F FC                MOV     R4,A
0090 7800        R     MOV     R0,#LOW t
0092 E2                MOVX    A,@R0
0093 FB                MOV     R3,A
C51 COMPILER V7.06   MAIN                                                                  12/01/2005 19:02:46 PAGE 37  

0094 08                INC     R0
0095 E2                MOVX    A,@R0
0096 F9                MOV     R1,A
0097 08                INC     R0
0098 E2                MOVX    A,@R0
0099 FA                MOV     R2,A
009A 08                INC     R0
009B E2                MOVX    A,@R0
009C CB                XCH     A,R3
009D F8                MOV     R0,A
009E EB                MOV     A,R3
009F 2F                ADD     A,R7
00A0 FF                MOV     R7,A
00A1 EA                MOV     A,R2
00A2 3E                ADDC    A,R6
00A3 FE                MOV     R6,A
00A4 E9                MOV     A,R1
00A5 3D                ADDC    A,R5
00A6 FD                MOV     R5,A
00A7 E8                MOV     A,R0
00A8 3C                ADDC    A,R4
00A9 FC                MOV     R4,A
00AA C004              PUSH    AR4
00AC C005              PUSH    AR5
00AE C006              PUSH    AR6
00B0 C007              PUSH    AR7
00B2 7800        R     MOV     R0,#LOW s
00B4 E2                MOVX    A,@R0
00B5 FC                MOV     R4,A
00B6 08                INC     R0
00B7 E2                MOVX    A,@R0
00B8 FD                MOV     R5,A
00B9 08                INC     R0
00BA E2                MOVX    A,@R0
00BB FE                MOV     R6,A
00BC 08                INC     R0
00BD E2                MOVX    A,@R0
00BE FF                MOV     R7,A
00BF 7800        R     MOV     R0,#LOW ?_MD5_CYCLIC?BYTE+04H
00C1 120000      E     LCALL   ?C?LSTPDATA
00C4 D007              POP     AR7
00C6 D006              POP     AR6
00C8 D005              POP     AR5
00CA D004              POP     AR4
00CC 120000      R     LCALL   _MD5_CYCLIC
00CF 7800        R     MOV     R0,#LOW bb
00D1 E2                MOVX    A,@R0
00D2 FB                MOV     R3,A
00D3 08                INC     R0
00D4 E2                MOVX    A,@R0
00D5 F9                MOV     R1,A
00D6 08                INC     R0
00D7 E2                MOVX    A,@R0
00D8 FA                MOV     R2,A
00D9 08                INC     R0
00DA E2                MOVX    A,@R0
00DB CB                XCH     A,R3
00DC F8                MOV     R0,A
00DD EB                MOV     A,R3
00DE 2F                ADD     A,R7
00DF FF                MOV     R7,A
00E0 EA                MOV     A,R2
C51 COMPILER V7.06   MAIN                                                                  12/01/2005 19:02:46 PAGE 38  

00E1 3E                ADDC    A,R6
00E2 FE                MOV     R6,A
00E3 E9                MOV     A,R1
00E4 3D                ADDC    A,R5
00E5 FD                MOV     R5,A
00E6 E8                MOV     A,R0
00E7 3C                ADDC    A,R4
00E8 FC                MOV     R4,A
00E9 7800        R     MOV     R0,#LOW aa
00EB E2                MOVX    A,@R0
00EC FB                MOV     R3,A
00ED 08                INC     R0
00EE E2                MOVX    A,@R0
00EF FA                MOV     R2,A
00F0 08                INC     R0
00F1 E2                MOVX    A,@R0
00F2 F9                MOV     R1,A
00F3 020000      E     LJMP    ?C?LSTPTR
             ; FUNCTION _MD5_HH (END)

             ; FUNCTION L?0050 (BEGIN)
0000         L?0051:
0000 120000      E     LCALL   ?C?LLDCODE
0003 7800        R     MOV     R0,#LOW ?_MD5_II?BYTE+017H
0005 120000      E     LCALL   ?C?LSTPDATA
0008 7800        R     MOV     R0,#LOW bb
000A E2                MOVX    A,@R0
000B FC                MOV     R4,A
000C 08                INC     R0
000D E2                MOVX    A,@R0
000E FD                MOV     R5,A
000F 08                INC     R0
0010 E2                MOVX    A,@R0
0011 FE                MOV     R6,A
0012 08                INC     R0
0013 E2                MOVX    A,@R0
0014 FF                MOV     R7,A
0015 7BFE              MOV     R3,#0FEH
0017 7A00        R     MOV     R2,#HIGH aa
0019 7900        R     MOV     R1,#LOW aa
             ; FUNCTION _MD5_II (BEGIN)
                                           ; SOURCE LINE # 284
001B 7800        R     MOV     R0,#LOW aa
001D EB                MOV     A,R3
001E F2                MOVX    @R0,A
001F 08                INC     R0
0020 EA                MOV     A,R2
0021 F2                MOVX    @R0,A
0022 08                INC     R0
0023 E9                MOV     A,R1
0024 F2                MOVX    @R0,A
0025 08                INC     R0
0026 120000      E     LCALL   ?C?LSTPDATA
                                           ; SOURCE LINE # 285
                                           ; SOURCE LINE # 286
0029 7800        R     MOV     R0,#LOW cc
002B E2                MOVX    A,@R0
002C FC                MOV     R4,A
002D 08                INC     R0
002E E2                MOVX    A,@R0
002F FD                MOV     R5,A
0030 08                INC     R0
C51 COMPILER V7.06   MAIN                                                                  12/01/2005 19:02:46 PAGE 39  

0031 E2                MOVX    A,@R0
0032 FE                MOV     R6,A
0033 08                INC     R0
0034 E2                MOVX    A,@R0
0035 FF                MOV     R7,A
0036 7800        R     MOV     R0,#LOW ?_MD5_I?BYTE+04H
0038 120000      E     LCALL   ?C?LSTPDATA
003B 7800        R     MOV     R0,#LOW dd
003D E2                MOVX    A,@R0
003E FC                MOV     R4,A
003F 08                INC     R0
0040 E2                MOVX    A,@R0
0041 FD                MOV     R5,A
0042 08                INC     R0
0043 E2                MOVX    A,@R0
0044 FE                MOV     R6,A
0045 08                INC     R0
0046 E2                MOVX    A,@R0
0047 FF                MOV     R7,A
0048 7800        R     MOV     R0,#LOW ?_MD5_I?BYTE+08H
004A 120000      E     LCALL   ?C?LSTPDATA
004D 7800        R     MOV     R0,#LOW bb
004F E2                MOVX    A,@R0
0050 FC                MOV     R4,A
0051 08                INC     R0
0052 E2                MOVX    A,@R0
0053 FD                MOV     R5,A
0054 08                INC     R0
0055 E2                MOVX    A,@R0
0056 FE                MOV     R6,A
0057 08                INC     R0
0058 E2                MOVX    A,@R0
0059 FF                MOV     R7,A
005A 120000      R     LCALL   _MD5_I
005D 7800        R     MOV     R0,#LOW aa
005F E2                MOVX    A,@R0
0060 FB                MOV     R3,A
0061 08                INC     R0
0062 E2                MOVX    A,@R0
0063 FA                MOV     R2,A
0064 08                INC     R0
0065 E2                MOVX    A,@R0
0066 F9                MOV     R1,A
0067 120000      E     LCALL   ?C?LLDPTR0
006A EF                MOV     A,R7
006B 2B                ADD     A,R3
006C FF                MOV     R7,A
006D EE                MOV     A,R6
006E 3A                ADDC    A,R2
006F FE                MOV     R6,A
0070 ED                MOV     A,R5
0071 39                ADDC    A,R1
0072 FD                MOV     R5,A
0073 EC                MOV     A,R4
0074 38                ADDC    A,R0
0075 FC                MOV     R4,A
0076 7800        R     MOV     R0,#LOW k
0078 E2                MOVX    A,@R0
0079 FB                MOV     R3,A
007A 08                INC     R0
007B E2                MOVX    A,@R0
007C F9                MOV     R1,A
C51 COMPILER V7.06   MAIN                                                                  12/01/2005 19:02:46 PAGE 40  

007D 08                INC     R0
007E E2                MOVX    A,@R0
007F FA                MOV     R2,A
0080 08                INC     R0
0081 E2                MOVX    A,@R0
0082 CB                XCH     A,R3
0083 F8                MOV     R0,A
0084 EB                MOV     A,R3
0085 2F                ADD     A,R7
0086 FF                MOV     R7,A
0087 EA                MOV     A,R2
0088 3E                ADDC    A,R6
0089 FE                MOV     R6,A
008A E9                MOV     A,R1
008B 3D                ADDC    A,R5
008C FD                MOV     R5,A
008D E8                MOV     A,R0
008E 3C                ADDC    A,R4
008F FC                MOV     R4,A
0090 7800        R     MOV     R0,#LOW t
0092 E2                MOVX    A,@R0
0093 FB                MOV     R3,A
0094 08                INC     R0
0095 E2                MOVX    A,@R0
0096 F9                MOV     R1,A
0097 08                INC     R0
0098 E2                MOVX    A,@R0
0099 FA                MOV     R2,A
009A 08                INC     R0
009B E2                MOVX    A,@R0
009C CB                XCH     A,R3
009D F8                MOV     R0,A
009E EB                MOV     A,R3
009F 2F                ADD     A,R7
00A0 FF                MOV     R7,A
00A1 EA                MOV     A,R2
00A2 3E                ADDC    A,R6
00A3 FE                MOV     R6,A
00A4 E9                MOV     A,R1
00A5 3D                ADDC    A,R5
00A6 FD                MOV     R5,A
00A7 E8                MOV     A,R0
00A8 3C                ADDC    A,R4
00A9 FC                MOV     R4,A
00AA C004              PUSH    AR4
00AC C005              PUSH    AR5
00AE C006              PUSH    AR6
00B0 C007              PUSH    AR7
00B2 7800        R     MOV     R0,#LOW s
00B4 E2                MOVX    A,@R0
00B5 FC                MOV     R4,A
00B6 08                INC     R0
00B7 E2                MOVX    A,@R0
00B8 FD                MOV     R5,A
00B9 08                INC     R0
00BA E2                MOVX    A,@R0
00BB FE                MOV     R6,A
00BC 08                INC     R0
00BD E2                MOVX    A,@R0
00BE FF                MOV     R7,A
00BF 7800        R     MOV     R0,#LOW ?_MD5_CYCLIC?BYTE+04H
00C1 120000      E     LCALL   ?C?LSTPDATA
C51 COMPILER V7.06   MAIN                                                                  12/01/2005 19:02:46 PAGE 41  

00C4 D007              POP     AR7
00C6 D006              POP     AR6
00C8 D005              POP     AR5
00CA D004              POP     AR4
00CC 120000      R     LCALL   _MD5_CYCLIC
00CF 7800        R     MOV     R0,#LOW bb
00D1 E2                MOVX    A,@R0
00D2 FB                MOV     R3,A
00D3 08                INC     R0
00D4 E2                MOVX    A,@R0
00D5 F9                MOV     R1,A
00D6 08                INC     R0
00D7 E2                MOVX    A,@R0
00D8 FA                MOV     R2,A
00D9 08                INC     R0
00DA E2                MOVX    A,@R0
00DB CB                XCH     A,R3
00DC F8                MOV     R0,A
00DD EB                MOV     A,R3
00DE 2F                ADD     A,R7
00DF FF                MOV     R7,A
00E0 EA                MOV     A,R2
00E1 3E                ADDC    A,R6
00E2 FE                MOV     R6,A
00E3 E9                MOV     A,R1
00E4 3D                ADDC    A,R5
00E5 FD                MOV     R5,A
00E6 E8                MOV     A,R0
00E7 3C                ADDC    A,R4
00E8 FC                MOV     R4,A
00E9 7800        R     MOV     R0,#LOW aa
00EB E2                MOVX    A,@R0
00EC FB                MOV     R3,A
00ED 08                INC     R0
00EE E2                MOVX    A,@R0
00EF FA                MOV     R2,A
00F0 08                INC     R0
00F1 E2                MOVX    A,@R0
00F2 F9                MOV     R1,A
00F3 020000      E     LJMP    ?C?LSTPTR
             ; FUNCTION _MD5_II (END)

             ; FUNCTION L?0054 (BEGIN)
0000 7800        R     MOV     R0,#LOW ?_MD5_Packet?BYTE+03H
0002 74FE              MOV     A,#0FEH
0004 F2                MOVX    @R0,A
0005 08                INC     R0
0006 7400        R     MOV     A,#HIGH packet
0008 F2                MOVX    @R0,A
0009 08                INC     R0
000A 7400        R     MOV     A,#LOW packet
000C F2                MOVX    @R0,A
000D 7800        R     MOV     R0,#LOW md5CheckSum
000F         L?0055:
000F E2                MOVX    A,@R0
0010 FB                MOV     R3,A
0011 08                INC     R0
0012 E2                MOVX    A,@R0
0013 FA                MOV     R2,A
0014 08                INC     R0
0015 E2                MOVX    A,@R0
0016 F9                MOV     R1,A
C51 COMPILER V7.06   MAIN                                                                  12/01/2005 19:02:46 PAGE 42  

             ; FUNCTION _MD5_Packet (BEGIN)
                                           ; SOURCE LINE # 289
0017 7800        R     MOV     R0,#LOW md5CheckSum
0019 EB                MOV     A,R3
001A F2                MOVX    @R0,A
001B 08                INC     R0
001C EA                MOV     A,R2
001D F2                MOVX    @R0,A
001E 08                INC     R0
001F E9                MOV     A,R1
0020 F2                MOVX    @R0,A
                                           ; SOURCE LINE # 290
                                           ; SOURCE LINE # 291
0021 120000      E     LCALL   ?C?LLDPTR
0024 7800        R     MOV     R0,#LOW aa
0026 120000      E     LCALL   ?C?LSTPDATA
                                           ; SOURCE LINE # 292
0029 900004            MOV     DPTR,#04H
002C 120000      E     LCALL   ?C?LLDOPTR
002F 7800        R     MOV     R0,#LOW bb
0031 120000      E     LCALL   ?C?LSTPDATA
                                           ; SOURCE LINE # 293
0034 900008            MOV     DPTR,#08H
0037 120000      E     LCALL   ?C?LLDOPTR
003A 7800        R     MOV     R0,#LOW cc
003C 120000      E     LCALL   ?C?LSTPDATA
                                           ; SOURCE LINE # 294
003F 90000C            MOV     DPTR,#0CH
0042 120000      E     LCALL   ?C?LLDOPTR
0045 7800        R     MOV     R0,#LOW dd
0047 120000      E     LCALL   ?C?LSTPDATA
                                           ; SOURCE LINE # 296
004A 7800        R     MOV     R0,#LOW cc
004C E2                MOVX    A,@R0
004D FC                MOV     R4,A
004E 08                INC     R0
004F E2                MOVX    A,@R0
0050 FD                MOV     R5,A
0051 08                INC     R0
0052 E2                MOVX    A,@R0
0053 FE                MOV     R6,A
0054 08                INC     R0
0055 E2                MOVX    A,@R0
0056 FF                MOV     R7,A
0057 7800        R     MOV     R0,#LOW ?_MD5_FF?BYTE+07H
0059 120000      E     LCALL   ?C?LSTPDATA
005C 7800        R     MOV     R0,#LOW dd
005E E2                MOVX    A,@R0
005F FC                MOV     R4,A
0060 08                INC     R0
0061 E2                MOVX    A,@R0
0062 FD                MOV     R5,A
0063 08                INC     R0
0064 E2                MOVX    A,@R0
0065 FE                MOV     R6,A
0066 08                INC     R0
0067 E2                MOVX    A,@R0
0068 FF                MOV     R7,A
0069 7800        R     MOV     R0,#LOW ?_MD5_FF?BYTE+0BH
006B 120000      E     LCALL   ?C?LSTPDATA
006E 7800        R     MOV     R0,#LOW pPacket
0070 E2                MOVX    A,@R0
C51 COMPILER V7.06   MAIN                                                                  12/01/2005 19:02:46 PAGE 43  

0071 FB                MOV     R3,A
0072 08                INC     R0
0073 E2                MOVX    A,@R0
0074 FA                MOV     R2,A
0075 08                INC     R0
0076 E2                MOVX    A,@R0
0077 F9                MOV     R1,A
0078 120000      E     LCALL   ?C?LLDPTR
007B 7800        R     MOV     R0,#LOW ?_MD5_FF?BYTE+0FH
007D 120000      E     LCALL   ?C?LSTPDATA
0080 7800        R     MOV     R0,#LOW ?_MD5_FF?BYTE+013H
0082 120000      E     LCALL   ?C?LSTKPDATA
0085 00                DB      00H
0086 00                DB      00H
0087 00                DB      00H
0088 07                DB      07H
0089 900000      R     MOV     DPTR,#MD5_T01
008C 120000      R     LCALL   L?0044
                                           ; SOURCE LINE # 297
008F 7800        R     MOV     R0,#LOW bb
0091 E2                MOVX    A,@R0
0092 FC                MOV     R4,A
0093 08                INC     R0
0094 E2                MOVX    A,@R0
0095 FD                MOV     R5,A
0096 08                INC     R0
0097 E2                MOVX    A,@R0
0098 FE                MOV     R6,A
0099 08                INC     R0
009A E2                MOVX    A,@R0
009B FF                MOV     R7,A
009C 7800        R     MOV     R0,#LOW ?_MD5_FF?BYTE+07H
009E 120000      E     LCALL   ?C?LSTPDATA
00A1 7800        R     MOV     R0,#LOW cc
00A3 E2                MOVX    A,@R0
00A4 FC                MOV     R4,A
00A5 08                INC     R0
00A6 E2                MOVX    A,@R0
00A7 FD                MOV     R5,A
00A8 08                INC     R0
00A9 E2                MOVX    A,@R0
00AA FE                MOV     R6,A
00AB 08                INC     R0
00AC E2                MOVX    A,@R0
00AD FF                MOV     R7,A
00AE 7800        R     MOV     R0,#LOW ?_MD5_FF?BYTE+0BH
00B0 120000      E     LCALL   ?C?LSTPDATA
00B3 7800        R     MOV     R0,#LOW pPacket
00B5 E2                MOVX    A,@R0
00B6 FB                MOV     R3,A
00B7 08                INC     R0
00B8 E2                MOVX    A,@R0
00B9 FA                MOV     R2,A
00BA 08                INC     R0
00BB E2                MOVX    A,@R0
00BC F9                MOV     R1,A
00BD 900004            MOV     DPTR,#04H
00C0 120000      E     LCALL   ?C?LLDOPTR
00C3 7800        R     MOV     R0,#LOW ?_MD5_FF?BYTE+0FH
00C5 120000      E     LCALL   ?C?LSTPDATA
00C8 7800        R     MOV     R0,#LOW ?_MD5_FF?BYTE+013H
00CA 120000      E     LCALL   ?C?LSTKPDATA
C51 COMPILER V7.06   MAIN                                                                  12/01/2005 19:02:46 PAGE 44  

00CD 00                DB      00H
00CE 00                DB      00H
00CF 00                DB      00H
00D0 0C                DB      0CH
00D1 900000      R     MOV     DPTR,#MD5_T02
00D4 120000      E     LCALL   ?C?LLDCODE
00D7 7800        R     MOV     R0,#LOW ?_MD5_FF?BYTE+017H
00D9 120000      E     LCALL   ?C?LSTPDATA
00DC 7800        R     MOV     R0,#LOW aa
00DE E2                MOVX    A,@R0
00DF FC                MOV     R4,A
00E0 08                INC     R0
00E1 E2                MOVX    A,@R0
00E2 FD                MOV     R5,A
00E3 08                INC     R0
00E4 E2                MOVX    A,@R0
00E5 FE                MOV     R6,A
00E6 08                INC     R0
00E7 E2                MOVX    A,@R0
00E8 FF                MOV     R7,A
00E9 7BFE              MOV     R3,#0FEH
00EB 7A00        R     MOV     R2,#HIGH dd
00ED 7900        R     MOV     R1,#LOW dd
00EF 120000      R     LCALL   _MD5_FF
                                           ; SOURCE LINE # 298
00F2 7800        R     MOV     R0,#LOW aa
00F4 E2                MOVX    A,@R0
00F5 FC                MOV     R4,A
00F6 08                INC     R0
00F7 E2                MOVX    A,@R0
00F8 FD                MOV     R5,A
00F9 08                INC     R0
00FA E2                MOVX    A,@R0
00FB FE                MOV     R6,A
00FC 08                INC     R0
00FD E2                MOVX    A,@R0
00FE FF                MOV     R7,A
00FF 7800        R     MOV     R0,#LOW ?_MD5_FF?BYTE+07H
0101 120000      E     LCALL   ?C?LSTPDATA
0104 7800        R     MOV     R0,#LOW bb
0106 E2                MOVX    A,@R0
0107 FC                MOV     R4,A
0108 08                INC     R0
0109 E2                MOVX    A,@R0
010A FD                MOV     R5,A
010B 08                INC     R0
010C E2                MOVX    A,@R0
010D FE                MOV     R6,A
010E 08                INC     R0
010F E2                MOVX    A,@R0
0110 FF                MOV     R7,A
0111 7800        R     MOV     R0,#LOW ?_MD5_FF?BYTE+0BH
0113 120000      E     LCALL   ?C?LSTPDATA
0116 7800        R     MOV     R0,#LOW pPacket
0118 E2                MOVX    A,@R0
0119 FB                MOV     R3,A
011A 08                INC     R0
011B E2                MOVX    A,@R0
011C FA                MOV     R2,A
011D 08                INC     R0
011E E2                MOVX    A,@R0
011F F9                MOV     R1,A
C51 COMPILER V7.06   MAIN                                                                  12/01/2005 19:02:46 PAGE 45  

0120 900008            MOV     DPTR,#08H
0123 120000      E     LCALL   ?C?LLDOPTR
0126 7800        R     MOV     R0,#LOW ?_MD5_FF?BYTE+0FH
0128 120000      E     LCALL   ?C?LSTPDATA
012B 7800        R     MOV     R0,#LOW ?_MD5_FF?BYTE+013H
012D 120000      E     LCALL   ?C?LSTKPDATA
0130 00                DB      00H
0131 00                DB      00H
0132 00                DB      00H
0133 11                DB      011H
0134 900000      R     MOV     DPTR,#MD5_T03
0137 120000      E     LCALL   ?C?LLDCODE
013A 7800        R     MOV     R0,#LOW ?_MD5_FF?BYTE+017H
013C 120000      E     LCALL   ?C?LSTPDATA
013F 7800        R     MOV     R0,#LOW dd
0141 E2                MOVX    A,@R0
0142 FC                MOV     R4,A
0143 08                INC     R0
0144 E2                MOVX    A,@R0
0145 FD                MOV     R5,A
0146 08                INC     R0
0147 E2                MOVX    A,@R0
0148 FE                MOV     R6,A
0149 08                INC     R0
014A E2                MOVX    A,@R0
014B FF                MOV     R7,A
014C 7BFE              MOV     R3,#0FEH
014E 7A00        R     MOV     R2,#HIGH cc
0150 7900        R     MOV     R1,#LOW cc
0152 120000      R     LCALL   _MD5_FF
                                           ; SOURCE LINE # 299
0155 7800        R     MOV     R0,#LOW dd
0157 E2                MOVX    A,@R0
0158 FC                MOV     R4,A
0159 08                INC     R0
015A E2                MOVX    A,@R0
015B FD                MOV     R5,A
015C 08                INC     R0
015D E2                MOVX    A,@R0
015E FE                MOV     R6,A
015F 08                INC     R0
0160 E2                MOVX    A,@R0
0161 FF                MOV     R7,A
0162 7800        R     MOV     R0,#LOW ?_MD5_FF?BYTE+07H
0164 120000      E     LCALL   ?C?LSTPDATA
0167 7800        R     MOV     R0,#LOW aa
0169 E2                MOVX    A,@R0
016A FC                MOV     R4,A
016B 08                INC     R0
016C E2                MOVX    A,@R0
016D FD                MOV     R5,A
016E 08                INC     R0
016F E2                MOVX    A,@R0
0170 FE                MOV     R6,A
0171 08                INC     R0
0172 E2                MOVX    A,@R0
0173 FF                MOV     R7,A
0174 7800        R     MOV     R0,#LOW ?_MD5_FF?BYTE+0BH
0176 120000      E     LCALL   ?C?LSTPDATA
0179 7800        R     MOV     R0,#LOW pPacket
017B E2                MOVX    A,@R0
017C FB                MOV     R3,A
C51 COMPILER V7.06   MAIN                                                                  12/01/2005 19:02:46 PAGE 46  

017D 08                INC     R0
017E E2                MOVX    A,@R0
017F FA                MOV     R2,A
0180 08                INC     R0
0181 E2                MOVX    A,@R0
0182 F9                MOV     R1,A
0183 90000C            MOV     DPTR,#0CH
0186 120000      E     LCALL   ?C?LLDOPTR
0189 7800        R     MOV     R0,#LOW ?_MD5_FF?BYTE+0FH
018B 120000      E     LCALL   ?C?LSTPDATA
018E 7800        R     MOV     R0,#LOW ?_MD5_FF?BYTE+013H
0190 120000      E     LCALL   ?C?LSTKPDATA
0193 00                DB      00H
0194 00                DB      00H
0195 00                DB      00H
0196 16                DB      016H
0197 900000      R     MOV     DPTR,#MD5_T04
019A 120000      E     LCALL   ?C?LLDCODE
019D 7800        R     MOV     R0,#LOW ?_MD5_FF?BYTE+017H
019F 120000      E     LCALL   ?C?LSTPDATA
01A2 7800        R     MOV     R0,#LOW cc
01A4 E2                MOVX    A,@R0
01A5 FC                MOV     R4,A
01A6 08                INC     R0
01A7 E2                MOVX    A,@R0
01A8 FD                MOV     R5,A
01A9 08                INC     R0
01AA E2                MOVX    A,@R0
01AB FE                MOV     R6,A
01AC 08                INC     R0
01AD E2                MOVX    A,@R0
01AE FF                MOV     R7,A
01AF 7BFE              MOV     R3,#0FEH
01B1 7A00        R     MOV     R2,#HIGH bb
01B3 7900        R     MOV     R1,#LOW bb
01B5 120000      R     LCALL   _MD5_FF
                                           ; SOURCE LINE # 300
01B8 7800        R     MOV     R0,#LOW cc
01BA E2                MOVX    A,@R0
01BB FC                MOV     R4,A
01BC 08                INC     R0
01BD E2                MOVX    A,@R0
01BE FD                MOV     R5,A
01BF 08                INC     R0
01C0 E2                MOVX    A,@R0
01C1 FE                MOV     R6,A
01C2 08                INC     R0
01C3 E2                MOVX    A,@R0
01C4 FF                MOV     R7,A
01C5 7800        R     MOV     R0,#LOW ?_MD5_FF?BYTE+07H
01C7 120000      E     LCALL   ?C?LSTPDATA
01CA 7800        R     MOV     R0,#LOW dd
01CC E2                MOVX    A,@R0
01CD FC                MOV     R4,A
01CE 08                INC     R0
01CF E2                MOVX    A,@R0
01D0 FD                MOV     R5,A
01D1 08                INC     R0
01D2 E2                MOVX    A,@R0
01D3 FE                MOV     R6,A
01D4 08                INC     R0
01D5 E2                MOVX    A,@R0
C51 COMPILER V7.06   MAIN                                                                  12/01/2005 19:02:46 PAGE 47  

01D6 FF                MOV     R7,A
01D7 7800        R     MOV     R0,#LOW ?_MD5_FF?BYTE+0BH
01D9 120000      E     LCALL   ?C?LSTPDATA
01DC 7800        R     MOV     R0,#LOW pPacket
01DE E2                MOVX    A,@R0
01DF FB                MOV     R3,A
01E0 08                INC     R0
01E1 E2                MOVX    A,@R0
01E2 FA                MOV     R2,A
01E3 08                INC     R0
01E4 E2                MOVX    A,@R0
01E5 F9                MOV     R1,A
01E6 900010            MOV     DPTR,#010H
01E9 120000      E     LCALL   ?C?LLDOPTR
01EC 7800        R     MOV     R0,#LOW ?_MD5_FF?BYTE+0FH
01EE 120000      E     LCALL   ?C?LSTPDATA
01F1 7800        R     MOV     R0,#LOW ?_MD5_FF?BYTE+013H
01F3 120000      E     LCALL   ?C?LSTKPDATA
01F6 00                DB      00H
01F7 00                DB      00H
01F8 00                DB      00H
01F9 07                DB      07H
01FA 900000      R     MOV     DPTR,#MD5_T05
01FD 120000      R     LCALL   L?0044
                                           ; SOURCE LINE # 301
0200 7800        R     MOV     R0,#LOW bb
0202 E2                MOVX    A,@R0
0203 FC                MOV     R4,A
0204 08                INC     R0
0205 E2                MOVX    A,@R0
0206 FD                MOV     R5,A
0207 08                INC     R0
0208 E2                MOVX    A,@R0
0209 FE                MOV     R6,A
020A 08                INC     R0
020B E2                MOVX    A,@R0
020C FF                MOV     R7,A
020D 7800        R     MOV     R0,#LOW ?_MD5_FF?BYTE+07H
020F 120000      E     LCALL   ?C?LSTPDATA
0212 7800        R     MOV     R0,#LOW cc
0214 E2                MOVX    A,@R0
0215 FC                MOV     R4,A
0216 08                INC     R0
0217 E2                MOVX    A,@R0
0218 FD                MOV     R5,A
0219 08                INC     R0
021A E2                MOVX    A,@R0
021B FE                MOV     R6,A
021C 08                INC     R0
021D E2                MOVX    A,@R0
021E FF                MOV     R7,A
021F 7800        R     MOV     R0,#LOW ?_MD5_FF?BYTE+0BH
0221 120000      E     LCALL   ?C?LSTPDATA
0224 7800        R     MOV     R0,#LOW pPacket
0226 E2                MOVX    A,@R0
0227 FB                MOV     R3,A
0228 08                INC     R0
0229 E2                MOVX    A,@R0
022A FA                MOV     R2,A
022B 08                INC     R0
022C E2                MOVX    A,@R0
022D F9                MOV     R1,A
C51 COMPILER V7.06   MAIN                                                                  12/01/2005 19:02:46 PAGE 48  

022E 900014            MOV     DPTR,#014H
0231 120000      E     LCALL   ?C?LLDOPTR
0234 7800        R     MOV     R0,#LOW ?_MD5_FF?BYTE+0FH
0236 120000      E     LCALL   ?C?LSTPDATA
0239 7800        R     MOV     R0,#LOW ?_MD5_FF?BYTE+013H
023B 120000      E     LCALL   ?C?LSTKPDATA
023E 00                DB      00H
023F 00                DB      00H
0240 00                DB      00H
0241 0C                DB      0CH
0242 900000      R     MOV     DPTR,#MD5_T06
0245 120000      E     LCALL   ?C?LLDCODE
0248 7800        R     MOV     R0,#LOW ?_MD5_FF?BYTE+017H
024A 120000      E     LCALL   ?C?LSTPDATA
024D 7800        R     MOV     R0,#LOW aa
024F E2                MOVX    A,@R0
0250 FC                MOV     R4,A
0251 08                INC     R0
0252 E2                MOVX    A,@R0
0253 FD                MOV     R5,A
0254 08                INC     R0
0255 E2                MOVX    A,@R0
0256 FE                MOV     R6,A
0257 08                INC     R0
0258 E2                MOVX    A,@R0
0259 FF                MOV     R7,A
025A 7BFE              MOV     R3,#0FEH
025C 7A00        R     MOV     R2,#HIGH dd
025E 7900        R     MOV     R1,#LOW dd
0260 120000      R     LCALL   _MD5_FF
                                           ; SOURCE LINE # 302
0263 7800        R     MOV     R0,#LOW aa
0265 E2                MOVX    A,@R0
0266 FC                MOV     R4,A
0267 08                INC     R0
0268 E2                MOVX    A,@R0
0269 FD                MOV     R5,A
026A 08                INC     R0
026B E2                MOVX    A,@R0
026C FE                MOV     R6,A
026D 08                INC     R0
026E E2                MOVX    A,@R0
026F FF                MOV     R7,A
0270 7800        R     MOV     R0,#LOW ?_MD5_FF?BYTE+07H
0272 120000      E     LCALL   ?C?LSTPDATA
0275 7800        R     MOV     R0,#LOW bb
0277 E2                MOVX    A,@R0
0278 FC                MOV     R4,A
0279 08                INC     R0
027A E2                MOVX    A,@R0
027B FD                MOV     R5,A
027C 08                INC     R0
027D E2                MOVX    A,@R0
027E FE                MOV     R6,A
027F 08                INC     R0
0280 E2                MOVX    A,@R0
0281 FF                MOV     R7,A
0282 7800        R     MOV     R0,#LOW ?_MD5_FF?BYTE+0BH
0284 120000      E     LCALL   ?C?LSTPDATA
0287 7800        R     MOV     R0,#LOW pPacket
0289 E2                MOVX    A,@R0
028A FB                MOV     R3,A
C51 COMPILER V7.06   MAIN                                                                  12/01/2005 19:02:46 PAGE 49  

028B 08                INC     R0
028C E2                MOVX    A,@R0
028D FA                MOV     R2,A
028E 08                INC     R0
028F E2                MOVX    A,@R0
0290 F9                MOV     R1,A
0291 900018            MOV     DPTR,#018H
0294 120000      E     LCALL   ?C?LLDOPTR
0297 7800        R     MOV     R0,#LOW ?_MD5_FF?BYTE+0FH
0299 120000      E     LCALL   ?C?LSTPDATA
029C 7800        R     MOV     R0,#LOW ?_MD5_FF?BYTE+013H
029E 120000      E     LCALL   ?C?LSTKPDATA
02A1 00                DB      00H
02A2 00                DB      00H
02A3 00                DB      00H
02A4 11                DB      011H
02A5 900000      R     MOV     DPTR,#MD5_T07
02A8 120000      E     LCALL   ?C?LLDCODE
02AB 7800        R     MOV     R0,#LOW ?_MD5_FF?BYTE+017H
02AD 120000      E     LCALL   ?C?LSTPDATA
02B0 7800        R     MOV     R0,#LOW dd
02B2 E2                MOVX    A,@R0
02B3 FC                MOV     R4,A
02B4 08                INC     R0
02B5 E2                MOVX    A,@R0
02B6 FD                MOV     R5,A
02B7 08                INC     R0
02B8 E2                MOVX    A,@R0
02B9 FE                MOV     R6,A
02BA 08                INC     R0
02BB E2                MOVX    A,@R0
02BC FF                MOV     R7,A
02BD 7BFE              MOV     R3,#0FEH
02BF 7A00        R     MOV     R2,#HIGH cc
02C1 7900        R     MOV     R1,#LOW cc
02C3 120000      R     LCALL   _MD5_FF
                                           ; SOURCE LINE # 303
02C6 7800        R     MOV     R0,#LOW dd
02C8 E2                MOVX    A,@R0
02C9 FC                MOV     R4,A
02CA 08                INC     R0
02CB E2                MOVX    A,@R0
02CC FD                MOV     R5,A
02CD 08                INC     R0
02CE E2                MOVX    A,@R0
02CF FE                MOV     R6,A
02D0 08                INC     R0
02D1 E2                MOVX    A,@R0
02D2 FF                MOV     R7,A
02D3 7800        R     MOV     R0,#LOW ?_MD5_FF?BYTE+07H
02D5 120000      E     LCALL   ?C?LSTPDATA
02D8 7800        R     MOV     R0,#LOW aa
02DA E2                MOVX    A,@R0
02DB FC                MOV     R4,A
02DC 08                INC     R0
02DD E2                MOVX    A,@R0
02DE FD                MOV     R5,A
02DF 08                INC     R0
02E0 E2                MOVX    A,@R0
02E1 FE                MOV     R6,A
02E2 08                INC     R0
02E3 E2                MOVX    A,@R0
C51 COMPILER V7.06   MAIN                                                                  12/01/2005 19:02:46 PAGE 50  

02E4 FF                MOV     R7,A
02E5 7800        R     MOV     R0,#LOW ?_MD5_FF?BYTE+0BH
02E7 120000      E     LCALL   ?C?LSTPDATA
02EA 7800        R     MOV     R0,#LOW pPacket
02EC E2                MOVX    A,@R0
02ED FB                MOV     R3,A
02EE 08                INC     R0
02EF E2                MOVX    A,@R0
02F0 FA                MOV     R2,A
02F1 08                INC     R0
02F2 E2                MOVX    A,@R0
02F3 F9                MOV     R1,A
02F4 90001C            MOV     DPTR,#01CH
02F7 120000      E     LCALL   ?C?LLDOPTR
02FA 7800        R     MOV     R0,#LOW ?_MD5_FF?BYTE+0FH
02FC 120000      E     LCALL   ?C?LSTPDATA
02FF 7800        R     MOV     R0,#LOW ?_MD5_FF?BYTE+013H
0301 120000      E     LCALL   ?C?LSTKPDATA
0304 00                DB      00H
0305 00                DB      00H
0306 00                DB      00H
0307 16                DB      016H
0308 900000      R     MOV     DPTR,#MD5_T08
030B 120000      E     LCALL   ?C?LLDCODE
030E 7800        R     MOV     R0,#LOW ?_MD5_FF?BYTE+017H
0310 120000      E     LCALL   ?C?LSTPDATA
0313 7800        R     MOV     R0,#LOW cc
0315 E2                MOVX    A,@R0
0316 FC                MOV     R4,A
0317 08                INC     R0
0318 E2                MOVX    A,@R0
0319 FD                MOV     R5,A
031A 08                INC     R0
031B E2                MOVX    A,@R0
031C FE                MOV     R6,A
031D 08                INC     R0
031E E2                MOVX    A,@R0
031F FF                MOV     R7,A
0320 7BFE              MOV     R3,#0FEH
0322 7A00        R     MOV     R2,#HIGH bb
0324 7900        R     MOV     R1,#LOW bb
0326 120000      R     LCALL   _MD5_FF
                                           ; SOURCE LINE # 304
0329 7800        R     MOV     R0,#LOW cc
032B E2                MOVX    A,@R0
032C FC                MOV     R4,A
032D 08                INC     R0
032E E2                MOVX    A,@R0
032F FD                MOV     R5,A
0330 08                INC     R0
0331 E2                MOVX    A,@R0
0332 FE                MOV     R6,A
0333 08                INC     R0
0334 E2                MOVX    A,@R0
0335 FF                MOV     R7,A
0336 7800        R     MOV     R0,#LOW ?_MD5_FF?BYTE+07H
0338 120000      E     LCALL   ?C?LSTPDATA
033B 7800        R     MOV     R0,#LOW dd
033D E2                MOVX    A,@R0
033E FC                MOV     R4,A
033F 08                INC     R0
0340 E2                MOVX    A,@R0
C51 COMPILER V7.06   MAIN                                                                  12/01/2005 19:02:46 PAGE 51  

0341 FD                MOV     R5,A
0342 08                INC     R0
0343 E2                MOVX    A,@R0
0344 FE                MOV     R6,A
0345 08                INC     R0
0346 E2                MOVX    A,@R0
0347 FF                MOV     R7,A
0348 7800        R     MOV     R0,#LOW ?_MD5_FF?BYTE+0BH
034A 120000      E     LCALL   ?C?LSTPDATA
034D 7800        R     MOV     R0,#LOW pPacket
034F E2                MOVX    A,@R0
0350 FB                MOV     R3,A
0351 08                INC     R0
0352 E2                MOVX    A,@R0
0353 FA                MOV     R2,A
0354 08                INC     R0
0355 E2                MOVX    A,@R0
0356 F9                MOV     R1,A
0357 900020            MOV     DPTR,#020H
035A 120000      E     LCALL   ?C?LLDOPTR
035D 7800        R     MOV     R0,#LOW ?_MD5_FF?BYTE+0FH
035F 120000      E     LCALL   ?C?LSTPDATA
0362 7800        R     MOV     R0,#LOW ?_MD5_FF?BYTE+013H
0364 120000      E     LCALL   ?C?LSTKPDATA
0367 00                DB      00H
0368 00                DB      00H
0369 00                DB      00H
036A 07                DB      07H
036B 900000      R     MOV     DPTR,#MD5_T09
036E 120000      R     LCALL   L?0045
                                           ; SOURCE LINE # 305
0371 7800        R     MOV     R0,#LOW bb
0373 E2                MOVX    A,@R0
0374 FC                MOV     R4,A
0375 08                INC     R0
0376 E2                MOVX    A,@R0
0377 FD                MOV     R5,A
0378 08                INC     R0
0379 E2                MOVX    A,@R0
037A FE                MOV     R6,A
037B 08                INC     R0
037C E2                MOVX    A,@R0
037D FF                MOV     R7,A
037E 7800        R     MOV     R0,#LOW ?_MD5_FF?BYTE+07H
0380 120000      E     LCALL   ?C?LSTPDATA
0383 7800        R     MOV     R0,#LOW cc
0385 E2                MOVX    A,@R0
0386 FC                MOV     R4,A
0387 08                INC     R0
0388 E2                MOVX    A,@R0
0389 FD                MOV     R5,A
038A 08                INC     R0
038B E2                MOVX    A,@R0
038C FE                MOV     R6,A
038D 08                INC     R0
038E E2                MOVX    A,@R0
038F FF                MOV     R7,A
0390 7800        R     MOV     R0,#LOW ?_MD5_FF?BYTE+0BH
0392 120000      E     LCALL   ?C?LSTPDATA
0395 7800        R     MOV     R0,#LOW pPacket
0397 E2                MOVX    A,@R0
0398 FB                MOV     R3,A
C51 COMPILER V7.06   MAIN                                                                  12/01/2005 19:02:46 PAGE 52  

0399 08                INC     R0
039A E2                MOVX    A,@R0
039B FA                MOV     R2,A
039C 08                INC     R0
039D E2                MOVX    A,@R0
039E F9                MOV     R1,A
039F 900024            MOV     DPTR,#024H
03A2 120000      E     LCALL   ?C?LLDOPTR
03A5 7800        R     MOV     R0,#LOW ?_MD5_FF?BYTE+0FH
03A7 120000      E     LCALL   ?C?LSTPDATA
03AA 7800        R     MOV     R0,#LOW ?_MD5_FF?BYTE+013H
03AC 120000      E     LCALL   ?C?LSTKPDATA
03AF 00                DB      00H
03B0 00                DB      00H
03B1 00                DB      00H
03B2 0C                DB      0CH
03B3 900000      R     MOV     DPTR,#MD5_T10
03B6 120000      E     LCALL   ?C?LLDCODE
03B9 7800        R     MOV     R0,#LOW ?_MD5_FF?BYTE+017H
03BB 120000      E     LCALL   ?C?LSTPDATA
03BE 7800        R     MOV     R0,#LOW aa
03C0 E2                MOVX    A,@R0
03C1 FC                MOV     R4,A
03C2 08                INC     R0
03C3 E2                MOVX    A,@R0
03C4 FD                MOV     R5,A
03C5 08                INC     R0
03C6 E2                MOVX    A,@R0
03C7 FE                MOV     R6,A
03C8 08                INC     R0
03C9 E2                MOVX    A,@R0
03CA FF                MOV     R7,A
03CB 7BFE              MOV     R3,#0FEH
03CD 7A00        R     MOV     R2,#HIGH dd
03CF 7900        R     MOV     R1,#LOW dd
03D1 120000      R     LCALL   _MD5_FF
                                           ; SOURCE LINE # 306
03D4 7800        R     MOV     R0,#LOW aa
03D6 E2                MOVX    A,@R0
03D7 FC                MOV     R4,A
03D8 08                INC     R0
03D9 E2                MOVX    A,@R0
03DA FD                MOV     R5,A
03DB 08                INC     R0
03DC E2                MOVX    A,@R0
03DD FE                MOV     R6,A
03DE 08                INC     R0
03DF E2                MOVX    A,@R0
03E0 FF                MOV     R7,A
03E1 7800        R     MOV     R0,#LOW ?_MD5_FF?BYTE+07H
03E3 120000      E     LCALL   ?C?LSTPDATA
03E6 7800        R     MOV     R0,#LOW bb
03E8 E2                MOVX    A,@R0
03E9 FC                MOV     R4,A
03EA 08                INC     R0
03EB E2                MOVX    A,@R0
03EC FD                MOV     R5,A
03ED 08                INC     R0
03EE E2                MOVX    A,@R0
03EF FE                MOV     R6,A
03F0 08                INC     R0
03F1 E2                MOVX    A,@R0
C51 COMPILER V7.06   MAIN                                                                  12/01/2005 19:02:46 PAGE 53  

03F2 FF                MOV     R7,A
03F3 7800        R     MOV     R0,#LOW ?_MD5_FF?BYTE+0BH
03F5 120000      E     LCALL   ?C?LSTPDATA
03F8 7800        R     MOV     R0,#LOW pPacket
03FA E2                MOVX    A,@R0
03FB FB                MOV     R3,A
03FC 08                INC     R0
03FD E2                MOVX    A,@R0
03FE FA                MOV     R2,A
03FF 08                INC     R0
0400 E2                MOVX    A,@R0
0401 F9                MOV     R1,A
0402 900028            MOV     DPTR,#028H
0405 120000      E     LCALL   ?C?LLDOPTR
0408 7800        R     MOV     R0,#LOW ?_MD5_FF?BYTE+0FH
040A 120000      E     LCALL   ?C?LSTPDATA
040D 7800        R     MOV     R0,#LOW ?_MD5_FF?BYTE+013H
040F 120000      E     LCALL   ?C?LSTKPDATA
0412 00                DB      00H
0413 00                DB      00H
0414 00                DB      00H
0415 11                DB      011H
0416 900000      R     MOV     DPTR,#MD5_T11
0419 120000      E     LCALL   ?C?LLDCODE
041C 7800        R     MOV     R0,#LOW ?_MD5_FF?BYTE+017H
041E 120000      E     LCALL   ?C?LSTPDATA
0421 7800        R     MOV     R0,#LOW dd
0423 E2                MOVX    A,@R0
0424 FC                MOV     R4,A
0425 08                INC     R0
0426 E2                MOVX    A,@R0
0427 FD                MOV     R5,A
0428 08                INC     R0
0429 E2                MOVX    A,@R0
042A FE                MOV     R6,A
042B 08                INC     R0
042C E2                MOVX    A,@R0
042D FF                MOV     R7,A
042E 7BFE              MOV     R3,#0FEH
0430 7A00        R     MOV     R2,#HIGH cc
0432 7900        R     MOV     R1,#LOW cc
0434 120000      R     LCALL   _MD5_FF
                                           ; SOURCE LINE # 307
0437 7800        R     MOV     R0,#LOW dd
0439 E2                MOVX    A,@R0
043A FC                MOV     R4,A
043B 08                INC     R0
043C E2                MOVX    A,@R0
043D FD                MOV     R5,A
043E 08                INC     R0
043F E2                MOVX    A,@R0
0440 FE                MOV     R6,A
0441 08                INC     R0
0442 E2                MOVX    A,@R0
0443 FF                MOV     R7,A
0444 7800        R     MOV     R0,#LOW ?_MD5_FF?BYTE+07H
0446 120000      E     LCALL   ?C?LSTPDATA
0449 7800        R     MOV     R0,#LOW aa
044B E2                MOVX    A,@R0
044C FC                MOV     R4,A
044D 08                INC     R0
044E E2                MOVX    A,@R0
C51 COMPILER V7.06   MAIN                                                                  12/01/2005 19:02:46 PAGE 54  

044F FD                MOV     R5,A
0450 08                INC     R0
0451 E2                MOVX    A,@R0
0452 FE                MOV     R6,A
0453 08                INC     R0
0454 E2                MOVX    A,@R0
0455 FF                MOV     R7,A
0456 7800        R     MOV     R0,#LOW ?_MD5_FF?BYTE+0BH
0458 120000      E     LCALL   ?C?LSTPDATA
045B 7800        R     MOV     R0,#LOW pPacket
045D E2                MOVX    A,@R0
045E FB                MOV     R3,A
045F 08                INC     R0
0460 E2                MOVX    A,@R0
0461 FA                MOV     R2,A
0462 08                INC     R0
0463 E2                MOVX    A,@R0
0464 F9                MOV     R1,A
0465 90002C            MOV     DPTR,#02CH
0468 120000      E     LCALL   ?C?LLDOPTR
046B 7800        R     MOV     R0,#LOW ?_MD5_FF?BYTE+0FH
046D 120000      E     LCALL   ?C?LSTPDATA
0470 7800        R     MOV     R0,#LOW ?_MD5_FF?BYTE+013H
0472 120000      E     LCALL   ?C?LSTKPDATA
0475 00                DB      00H
0476 00                DB      00H
0477 00                DB      00H
0478 16                DB      016H
0479 900000      R     MOV     DPTR,#MD5_T12
047C 120000      E     LCALL   ?C?LLDCODE
047F 7800        R     MOV     R0,#LOW ?_MD5_FF?BYTE+017H
0481 120000      E     LCALL   ?C?LSTPDATA
0484 7800        R     MOV     R0,#LOW cc
0486 E2                MOVX    A,@R0
0487 FC                MOV     R4,A
0488 08                INC     R0
0489 E2                MOVX    A,@R0
048A FD                MOV     R5,A
048B 08                INC     R0
048C E2                MOVX    A,@R0
048D FE                MOV     R6,A
048E 08                INC     R0
048F E2                MOVX    A,@R0
0490 FF                MOV     R7,A
0491 7BFE              MOV     R3,#0FEH
0493 7A00        R     MOV     R2,#HIGH bb
0495 7900        R     MOV     R1,#LOW bb
0497 120000      R     LCALL   _MD5_FF
                                           ; SOURCE LINE # 308
049A 7800        R     MOV     R0,#LOW cc
049C E2                MOVX    A,@R0
049D FC                MOV     R4,A
049E 08                INC     R0
049F E2                MOVX    A,@R0
04A0 FD                MOV     R5,A
04A1 08                INC     R0
04A2 E2                MOVX    A,@R0
04A3 FE                MOV     R6,A
04A4 08                INC     R0
04A5 E2                MOVX    A,@R0
04A6 FF                MOV     R7,A
04A7 7800        R     MOV     R0,#LOW ?_MD5_FF?BYTE+07H
C51 COMPILER V7.06   MAIN                                                                  12/01/2005 19:02:46 PAGE 55  

04A9 120000      E     LCALL   ?C?LSTPDATA
04AC 7800        R     MOV     R0,#LOW dd
04AE E2                MOVX    A,@R0
04AF FC                MOV     R4,A
04B0 08                INC     R0
04B1 E2                MOVX    A,@R0
04B2 FD                MOV     R5,A
04B3 08                INC     R0
04B4 E2                MOVX    A,@R0
04B5 FE                MOV     R6,A
04B6 08                INC     R0
04B7 E2                MOVX    A,@R0
04B8 FF                MOV     R7,A
04B9 7800        R     MOV     R0,#LOW ?_MD5_FF?BYTE+0BH
04BB 120000      E     LCALL   ?C?LSTPDATA
04BE 7800        R     MOV     R0,#LOW pPacket
04C0 E2                MOVX    A,@R0
04C1 FB                MOV     R3,A
04C2 08                INC     R0
04C3 E2                MOVX    A,@R0
04C4 FA                MOV     R2,A
04C5 08                INC     R0
04C6 E2                MOVX    A,@R0
04C7 F9                MOV     R1,A
04C8 900030            MOV     DPTR,#030H
04CB 120000      E     LCALL   ?C?LLDOPTR
04CE 7800        R     MOV     R0,#LOW ?_MD5_FF?BYTE+0FH
04D0 120000      E     LCALL   ?C?LSTPDATA
04D3 7800        R     MOV     R0,#LOW ?_MD5_FF?BYTE+013H
04D5 120000      E     LCALL   ?C?LSTKPDATA
04D8 00                DB      00H
04D9 00                DB      00H
04DA 00                DB      00H
04DB 07                DB      07H
04DC 900000      R     MOV     DPTR,#MD5_T13
04DF 120000      R     LCALL   L?0045
                                           ; SOURCE LINE # 309
04E2 7800        R     MOV     R0,#LOW bb
04E4 E2                MOVX    A,@R0
04E5 FC                MOV     R4,A
04E6 08                INC     R0
04E7 E2                MOVX    A,@R0
04E8 FD                MOV     R5,A
04E9 08                INC     R0
04EA E2                MOVX    A,@R0
04EB FE                MOV     R6,A
04EC 08                INC     R0
04ED E2                MOVX    A,@R0
04EE FF                MOV     R7,A
04EF 7800        R     MOV     R0,#LOW ?_MD5_FF?BYTE+07H
04F1 120000      E     LCALL   ?C?LSTPDATA
04F4 7800        R     MOV     R0,#LOW cc
04F6 E2                MOVX    A,@R0
04F7 FC                MOV     R4,A
04F8 08                INC     R0
04F9 E2                MOVX    A,@R0
04FA FD                MOV     R5,A
04FB 08                INC     R0
04FC E2                MOVX    A,@R0
04FD FE                MOV     R6,A
04FE 08                INC     R0
04FF E2                MOVX    A,@R0
C51 COMPILER V7.06   MAIN                                                                  12/01/2005 19:02:46 PAGE 56  

0500 FF                MOV     R7,A
0501 7800        R     MOV     R0,#LOW ?_MD5_FF?BYTE+0BH
0503 120000      E     LCALL   ?C?LSTPDATA
0506 7800        R     MOV     R0,#LOW pPacket
0508 E2                MOVX    A,@R0
0509 FB                MOV     R3,A
050A 08                INC     R0
050B E2                MOVX    A,@R0
050C FA                MOV     R2,A
050D 08                INC     R0
050E E2                MOVX    A,@R0
050F F9                MOV     R1,A
0510 900034            MOV     DPTR,#034H
0513 120000      E     LCALL   ?C?LLDOPTR
0516 7800        R     MOV     R0,#LOW ?_MD5_FF?BYTE+0FH
0518 120000      E     LCALL   ?C?LSTPDATA
051B 7800        R     MOV     R0,#LOW ?_MD5_FF?BYTE+013H
051D 120000      E     LCALL   ?C?LSTKPDATA
0520 00                DB      00H
0521 00                DB      00H
0522 00                DB      00H
0523 0C                DB      0CH
0524 900000      R     MOV     DPTR,#MD5_T14
0527 120000      E     LCALL   ?C?LLDCODE
052A 7800        R     MOV     R0,#LOW ?_MD5_FF?BYTE+017H
052C 120000      E     LCALL   ?C?LSTPDATA
052F 7800        R     MOV     R0,#LOW aa
0531 E2                MOVX    A,@R0
0532 FC                MOV     R4,A
0533 08                INC     R0
0534 E2                MOVX    A,@R0
0535 FD                MOV     R5,A
0536 08                INC     R0
0537 E2                MOVX    A,@R0
0538 FE                MOV     R6,A
0539 08                INC     R0
053A E2                MOVX    A,@R0
053B FF                MOV     R7,A
053C 7BFE              MOV     R3,#0FEH
053E 7A00        R     MOV     R2,#HIGH dd
0540 7900        R     MOV     R1,#LOW dd
0542 120000      R     LCALL   _MD5_FF
                                           ; SOURCE LINE # 310
0545 7800        R     MOV     R0,#LOW aa
0547 E2                MOVX    A,@R0
0548 FC                MOV     R4,A
0549 08                INC     R0
054A E2                MOVX    A,@R0
054B FD                MOV     R5,A
054C 08                INC     R0
054D E2                MOVX    A,@R0
054E FE                MOV     R6,A
054F 08                INC     R0
0550 E2                MOVX    A,@R0
0551 FF                MOV     R7,A
0552 7800        R     MOV     R0,#LOW ?_MD5_FF?BYTE+07H
0554 120000      E     LCALL   ?C?LSTPDATA
0557 7800        R     MOV     R0,#LOW bb
0559 E2                MOVX    A,@R0
055A FC                MOV     R4,A
055B 08                INC     R0
055C E2                MOVX    A,@R0
C51 COMPILER V7.06   MAIN                                                                  12/01/2005 19:02:46 PAGE 57  

055D FD                MOV     R5,A
055E 08                INC     R0
055F E2                MOVX    A,@R0
0560 FE                MOV     R6,A
0561 08                INC     R0
0562 E2                MOVX    A,@R0
0563 FF                MOV     R7,A
0564 7800        R     MOV     R0,#LOW ?_MD5_FF?BYTE+0BH
0566 120000      E     LCALL   ?C?LSTPDATA
0569 7800        R     MOV     R0,#LOW pPacket
056B E2                MOVX    A,@R0
056C FB                MOV     R3,A
056D 08                INC     R0
056E E2                MOVX    A,@R0
056F FA                MOV     R2,A
0570 08                INC     R0
0571 E2                MOVX    A,@R0
0572 F9                MOV     R1,A
0573 900038            MOV     DPTR,#038H
0576 120000      E     LCALL   ?C?LLDOPTR
0579 7800        R     MOV     R0,#LOW ?_MD5_FF?BYTE+0FH
057B 120000      E     LCALL   ?C?LSTPDATA
057E 7800        R     MOV     R0,#LOW ?_MD5_FF?BYTE+013H
0580 120000      E     LCALL   ?C?LSTKPDATA
0583 00                DB      00H
0584 00                DB      00H
0585 00                DB      00H
0586 11                DB      011H
0587 900000      R     MOV     DPTR,#MD5_T15
058A 120000      E     LCALL   ?C?LLDCODE
058D 7800        R     MOV     R0,#LOW ?_MD5_FF?BYTE+017H
058F 120000      E     LCALL   ?C?LSTPDATA
0592 7800        R     MOV     R0,#LOW dd
0594 E2                MOVX    A,@R0
0595 FC                MOV     R4,A
0596 08                INC     R0
0597 E2                MOVX    A,@R0
0598 FD                MOV     R5,A
0599 08                INC     R0
059A E2                MOVX    A,@R0
059B FE                MOV     R6,A
059C 08                INC     R0
059D E2                MOVX    A,@R0
059E FF                MOV     R7,A
059F 7BFE              MOV     R3,#0FEH
05A1 7A00        R     MOV     R2,#HIGH cc
05A3 7900        R     MOV     R1,#LOW cc
05A5 120000      R     LCALL   _MD5_FF
                                           ; SOURCE LINE # 311
05A8 7800        R     MOV     R0,#LOW dd
05AA E2                MOVX    A,@R0
05AB FC                MOV     R4,A
05AC 08                INC     R0
05AD E2                MOVX    A,@R0
05AE FD                MOV     R5,A
05AF 08                INC     R0
05B0 E2                MOVX    A,@R0
05B1 FE                MOV     R6,A
05B2 08                INC     R0
05B3 E2                MOVX    A,@R0
05B4 FF                MOV     R7,A
05B5 7800        R     MOV     R0,#LOW ?_MD5_FF?BYTE+07H
C51 COMPILER V7.06   MAIN                                                                  12/01/2005 19:02:46 PAGE 58  

05B7 120000      E     LCALL   ?C?LSTPDATA
05BA 7800        R     MOV     R0,#LOW aa
05BC E2                MOVX    A,@R0
05BD FC                MOV     R4,A
05BE 08                INC     R0
05BF E2                MOVX    A,@R0
05C0 FD                MOV     R5,A
05C1 08                INC     R0
05C2 E2                MOVX    A,@R0
05C3 FE                MOV     R6,A
05C4 08                INC     R0
05C5 E2                MOVX    A,@R0
05C6 FF                MOV     R7,A
05C7 7800        R     MOV     R0,#LOW ?_MD5_FF?BYTE+0BH
05C9 120000      E     LCALL   ?C?LSTPDATA
05CC 7800        R     MOV     R0,#LOW pPacket
05CE E2                MOVX    A,@R0
05CF FB                MOV     R3,A
05D0 08                INC     R0
05D1 E2                MOVX    A,@R0
05D2 FA                MOV     R2,A
05D3 08                INC     R0
05D4 E2                MOVX    A,@R0
05D5 F9                MOV     R1,A
05D6 90003C            MOV     DPTR,#03CH
05D9 120000      E     LCALL   ?C?LLDOPTR
05DC 7800        R     MOV     R0,#LOW ?_MD5_FF?BYTE+0FH
05DE 120000      E     LCALL   ?C?LSTPDATA
05E1 7800        R     MOV     R0,#LOW ?_MD5_FF?BYTE+013H
05E3 120000      E     LCALL   ?C?LSTKPDATA
05E6 00                DB      00H
05E7 00                DB      00H
05E8 00                DB      00H
05E9 16                DB      016H
05EA 900000      R     MOV     DPTR,#MD5_T16
05ED 120000      E     LCALL   ?C?LLDCODE
05F0 7800        R     MOV     R0,#LOW ?_MD5_FF?BYTE+017H
05F2 120000      E     LCALL   ?C?LSTPDATA
05F5 7800        R     MOV     R0,#LOW cc
05F7 E2                MOVX    A,@R0
05F8 FC                MOV     R4,A
05F9 08                INC     R0
05FA E2                MOVX    A,@R0
05FB FD                MOV     R5,A
05FC 08                INC     R0
05FD E2                MOVX    A,@R0
05FE FE                MOV     R6,A
05FF 08                INC     R0
0600 E2                MOVX    A,@R0
0601 FF                MOV     R7,A
0602 7BFE              MOV     R3,#0FEH
0604 7A00        R     MOV     R2,#HIGH bb
0606 7900        R     MOV     R1,#LOW bb
0608 120000      R     LCALL   _MD5_FF
                                           ; SOURCE LINE # 313
060B 7800        R     MOV     R0,#LOW cc
060D E2                MOVX    A,@R0
060E FC                MOV     R4,A
060F 08                INC     R0
0610 E2                MOVX    A,@R0
0611 FD                MOV     R5,A
0612 08                INC     R0
C51 COMPILER V7.06   MAIN                                                                  12/01/2005 19:02:46 PAGE 59  

0613 E2                MOVX    A,@R0
0614 FE                MOV     R6,A
0615 08                INC     R0
0616 E2                MOVX    A,@R0
0617 FF                MOV     R7,A
0618 7800        R     MOV     R0,#LOW ?_MD5_GG?BYTE+07H
061A 120000      E     LCALL   ?C?LSTPDATA
061D 7800        R     MOV     R0,#LOW dd
061F E2                MOVX    A,@R0
0620 FC                MOV     R4,A
0621 08                INC     R0
0622 E2                MOVX    A,@R0
0623 FD                MOV     R5,A
0624 08                INC     R0
0625 E2                MOVX    A,@R0
0626 FE                MOV     R6,A
0627 08                INC     R0
0628 E2                MOVX    A,@R0
0629 FF                MOV     R7,A
062A 7800        R     MOV     R0,#LOW ?_MD5_GG?BYTE+0BH
062C 120000      E     LCALL   ?C?LSTPDATA
062F 7800        R     MOV     R0,#LOW pPacket
0631 E2                MOVX    A,@R0
0632 FB                MOV     R3,A
0633 08                INC     R0
0634 E2                MOVX    A,@R0
0635 FA                MOV     R2,A
0636 08                INC     R0
0637 E2                MOVX    A,@R0
0638 F9                MOV     R1,A
0639 900004            MOV     DPTR,#04H
063C 120000      E     LCALL   ?C?LLDOPTR
063F 7800        R     MOV     R0,#LOW ?_MD5_GG?BYTE+0FH
0641 120000      E     LCALL   ?C?LSTPDATA
0644 7800        R     MOV     R0,#LOW ?_MD5_GG?BYTE+013H
0646 120000      E     LCALL   ?C?LSTKPDATA
0649 00                DB      00H
064A 00                DB      00H
064B 00                DB      00H
064C 05                DB      05H
064D 900000      R     MOV     DPTR,#MD5_T17
0650 120000      R     LCALL   L?0046
                                           ; SOURCE LINE # 314
0653 7800        R     MOV     R0,#LOW bb
0655 E2                MOVX    A,@R0
0656 FC                MOV     R4,A
0657 08                INC     R0
0658 E2                MOVX    A,@R0
0659 FD                MOV     R5,A
065A 08                INC     R0
065B E2                MOVX    A,@R0
065C FE                MOV     R6,A
065D 08                INC     R0
065E E2                MOVX    A,@R0
065F FF                MOV     R7,A
0660 7800        R     MOV     R0,#LOW ?_MD5_GG?BYTE+07H
0662 120000      E     LCALL   ?C?LSTPDATA
0665 7800        R     MOV     R0,#LOW cc
0667 E2                MOVX    A,@R0
0668 FC                MOV     R4,A
0669 08                INC     R0
066A E2                MOVX    A,@R0
C51 COMPILER V7.06   MAIN                                                                  12/01/2005 19:02:46 PAGE 60  

066B FD                MOV     R5,A
066C 08                INC     R0
066D E2                MOVX    A,@R0
066E FE                MOV     R6,A
066F 08                INC     R0
0670 E2                MOVX    A,@R0
0671 FF                MOV     R7,A
0672 7800        R     MOV     R0,#LOW ?_MD5_GG?BYTE+0BH
0674 120000      E     LCALL   ?C?LSTPDATA
0677 7800        R     MOV     R0,#LOW pPacket
0679 E2                MOVX    A,@R0
067A FB                MOV     R3,A
067B 08                INC     R0
067C E2                MOVX    A,@R0
067D FA                MOV     R2,A
067E 08                INC     R0
067F E2                MOVX    A,@R0
0680 F9                MOV     R1,A
0681 900018            MOV     DPTR,#018H
0684 120000      E     LCALL   ?C?LLDOPTR
0687 7800        R     MOV     R0,#LOW ?_MD5_GG?BYTE+0FH
0689 120000      E     LCALL   ?C?LSTPDATA
068C 7800        R     MOV     R0,#LOW ?_MD5_GG?BYTE+013H
068E 120000      E     LCALL   ?C?LSTKPDATA
0691 00                DB      00H
0692 00                DB      00H
0693 00                DB      00H
0694 09                DB      09H
0695 900000      R     MOV     DPTR,#MD5_T18
0698 120000      E     LCALL   ?C?LLDCODE
069B 7800        R     MOV     R0,#LOW ?_MD5_GG?BYTE+017H
069D 120000      E     LCALL   ?C?LSTPDATA
06A0 7800        R     MOV     R0,#LOW aa
06A2 E2                MOVX    A,@R0
06A3 FC                MOV     R4,A
06A4 08                INC     R0
06A5 E2                MOVX    A,@R0
06A6 FD                MOV     R5,A
06A7 08                INC     R0
06A8 E2                MOVX    A,@R0
06A9 FE                MOV     R6,A
06AA 08                INC     R0
06AB E2                MOVX    A,@R0
06AC FF                MOV     R7,A
06AD 7BFE              MOV     R3,#0FEH
06AF 7A00        R     MOV     R2,#HIGH dd
06B1 7900        R     MOV     R1,#LOW dd
06B3 120000      R     LCALL   _MD5_GG
                                           ; SOURCE LINE # 315
06B6 7800        R     MOV     R0,#LOW aa
06B8 E2                MOVX    A,@R0
06B9 FC                MOV     R4,A
06BA 08                INC     R0
06BB E2                MOVX    A,@R0
06BC FD                MOV     R5,A
06BD 08                INC     R0
06BE E2                MOVX    A,@R0
06BF FE                MOV     R6,A
06C0 08                INC     R0
06C1 E2                MOVX    A,@R0
06C2 FF                MOV     R7,A
06C3 7800        R     MOV     R0,#LOW ?_MD5_GG?BYTE+07H
C51 COMPILER V7.06   MAIN                                                                  12/01/2005 19:02:46 PAGE 61  

06C5 120000      E     LCALL   ?C?LSTPDATA
06C8 7800        R     MOV     R0,#LOW bb
06CA E2                MOVX    A,@R0
06CB FC                MOV     R4,A
06CC 08                INC     R0
06CD E2                MOVX    A,@R0
06CE FD                MOV     R5,A
06CF 08                INC     R0
06D0 E2                MOVX    A,@R0
06D1 FE                MOV     R6,A
06D2 08                INC     R0
06D3 E2                MOVX    A,@R0
06D4 FF                MOV     R7,A
06D5 7800        R     MOV     R0,#LOW ?_MD5_GG?BYTE+0BH
06D7 120000      E     LCALL   ?C?LSTPDATA
06DA 7800        R     MOV     R0,#LOW pPacket
06DC E2                MOVX    A,@R0
06DD FB                MOV     R3,A
06DE 08                INC     R0
06DF E2                MOVX    A,@R0
06E0 FA                MOV     R2,A
06E1 08                INC     R0
06E2 E2                MOVX    A,@R0
06E3 F9                MOV     R1,A
06E4 90002C            MOV     DPTR,#02CH
06E7 120000      E     LCALL   ?C?LLDOPTR
06EA 7800        R     MOV     R0,#LOW ?_MD5_GG?BYTE+0FH
06EC 120000      E     LCALL   ?C?LSTPDATA
06EF 7800        R     MOV     R0,#LOW ?_MD5_GG?BYTE+013H
06F1 120000      E     LCALL   ?C?LSTKPDATA
06F4 00                DB      00H
06F5 00                DB      00H
06F6 00                DB      00H
06F7 0E                DB      0EH
06F8 900000      R     MOV     DPTR,#MD5_T19
06FB 120000      E     LCALL   ?C?LLDCODE
06FE 7800        R     MOV     R0,#LOW ?_MD5_GG?BYTE+017H
0700 120000      E     LCALL   ?C?LSTPDATA
0703 7800        R     MOV     R0,#LOW dd
0705 E2                MOVX    A,@R0
0706 FC                MOV     R4,A
0707 08                INC     R0
0708 E2                MOVX    A,@R0
0709 FD                MOV     R5,A
070A 08                INC     R0
070B E2                MOVX    A,@R0
070C FE                MOV     R6,A
070D 08                INC     R0
070E E2                MOVX    A,@R0
070F FF                MOV     R7,A
0710 7BFE              MOV     R3,#0FEH
0712 7A00        R     MOV     R2,#HIGH cc
0714 7900        R     MOV     R1,#LOW cc
0716 120000      R     LCALL   _MD5_GG
                                           ; SOURCE LINE # 316
0719 7800        R     MOV     R0,#LOW dd
071B E2                MOVX    A,@R0
071C FC                MOV     R4,A
071D 08                INC     R0
071E E2                MOVX    A,@R0
071F FD                MOV     R5,A
0720 08                INC     R0
C51 COMPILER V7.06   MAIN                                                                  12/01/2005 19:02:46 PAGE 62  

0721 E2                MOVX    A,@R0
0722 FE                MOV     R6,A
0723 08                INC     R0
0724 E2                MOVX    A,@R0
0725 FF                MOV     R7,A
0726 7800        R     MOV     R0,#LOW ?_MD5_GG?BYTE+07H
0728 120000      E     LCALL   ?C?LSTPDATA
072B 7800        R     MOV     R0,#LOW aa
072D E2                MOVX    A,@R0
072E FC                MOV     R4,A
072F 08                INC     R0
0730 E2                MOVX    A,@R0
0731 FD                MOV     R5,A
0732 08                INC     R0
0733 E2                MOVX    A,@R0
0734 FE                MOV     R6,A
0735 08                INC     R0
0736 E2                MOVX    A,@R0
0737 FF                MOV     R7,A
0738 7800        R     MOV     R0,#LOW ?_MD5_GG?BYTE+0BH
073A 120000      E     LCALL   ?C?LSTPDATA
073D 7800        R     MOV     R0,#LOW pPacket
073F E2                MOVX    A,@R0
0740 FB                MOV     R3,A
0741 08                INC     R0
0742 E2                MOVX    A,@R0
0743 FA                MOV     R2,A
0744 08                INC     R0
0745 E2                MOVX    A,@R0
0746 F9                MOV     R1,A
0747 120000      E     LCALL   ?C?LLDPTR
074A 7800        R     MOV     R0,#LOW ?_MD5_GG?BYTE+0FH
074C 120000      E     LCALL   ?C?LSTPDATA
074F 7800        R     MOV     R0,#LOW ?_MD5_GG?BYTE+013H
0751 120000      E     LCALL   ?C?LSTKPDATA
0754 00                DB      00H
0755 00                DB      00H
0756 00                DB      00H
0757 14                DB      014H
0758 900000      R     MOV     DPTR,#MD5_T20
075B 120000      E     LCALL   ?C?LLDCODE
075E 7800        R     MOV     R0,#LOW ?_MD5_GG?BYTE+017H
0760 120000      E     LCALL   ?C?LSTPDATA
0763 7800        R     MOV     R0,#LOW cc
0765 E2                MOVX    A,@R0
0766 FC                MOV     R4,A
0767 08                INC     R0
0768 E2                MOVX    A,@R0
0769 FD                MOV     R5,A
076A 08                INC     R0
076B E2                MOVX    A,@R0
076C FE                MOV     R6,A
076D 08                INC     R0
076E E2                MOVX    A,@R0
076F FF                MOV     R7,A
0770 7BFE              MOV     R3,#0FEH
0772 7A00        R     MOV     R2,#HIGH bb
0774 7900        R     MOV     R1,#LOW bb
0776 120000      R     LCALL   _MD5_GG
                                           ; SOURCE LINE # 317
0779 7800        R     MOV     R0,#LOW cc
077B E2                MOVX    A,@R0
C51 COMPILER V7.06   MAIN                                                                  12/01/2005 19:02:46 PAGE 63  

077C FC                MOV     R4,A
077D 08                INC     R0
077E E2                MOVX    A,@R0
077F FD                MOV     R5,A
0780 08                INC     R0
0781 E2                MOVX    A,@R0
0782 FE                MOV     R6,A
0783 08                INC     R0
0784 E2                MOVX    A,@R0
0785 FF                MOV     R7,A
0786 7800        R     MOV     R0,#LOW ?_MD5_GG?BYTE+07H
0788 120000      E     LCALL   ?C?LSTPDATA
078B 7800        R     MOV     R0,#LOW dd
078D E2                MOVX    A,@R0
078E FC                MOV     R4,A
078F 08                INC     R0
0790 E2                MOVX    A,@R0
0791 FD                MOV     R5,A
0792 08                INC     R0
0793 E2                MOVX    A,@R0
0794 FE                MOV     R6,A
0795 08                INC     R0
0796 E2                MOVX    A,@R0
0797 FF                MOV     R7,A
0798 7800        R     MOV     R0,#LOW ?_MD5_GG?BYTE+0BH
079A 120000      E     LCALL   ?C?LSTPDATA
079D 7800        R     MOV     R0,#LOW pPacket
079F E2                MOVX    A,@R0
07A0 FB                MOV     R3,A
07A1 08                INC     R0
07A2 E2                MOVX    A,@R0
07A3 FA                MOV     R2,A
07A4 08                INC     R0
07A5 E2                MOVX    A,@R0
07A6 F9                MOV     R1,A
07A7 900014            MOV     DPTR,#014H
07AA 120000      E     LCALL   ?C?LLDOPTR
07AD 7800        R     MOV     R0,#LOW ?_MD5_GG?BYTE+0FH
07AF 120000      E     LCALL   ?C?LSTPDATA
07B2 7800        R     MOV     R0,#LOW ?_MD5_GG?BYTE+013H
07B4 120000      E     LCALL   ?C?LSTKPDATA
07B7 00                DB      00H
07B8 00                DB      00H
07B9 00                DB      00H
07BA 05                DB      05H
07BB 900000      R     MOV     DPTR,#MD5_T21
07BE 120000      R     LCALL   L?0046
                                           ; SOURCE LINE # 318
07C1 7800        R     MOV     R0,#LOW bb
07C3 E2                MOVX    A,@R0
07C4 FC                MOV     R4,A
07C5 08                INC     R0
07C6 E2                MOVX    A,@R0
07C7 FD                MOV     R5,A
07C8 08                INC     R0
07C9 E2                MOVX    A,@R0
07CA FE                MOV     R6,A
07CB 08                INC     R0
07CC E2                MOVX    A,@R0
07CD FF                MOV     R7,A
07CE 7800        R     MOV     R0,#LOW ?_MD5_GG?BYTE+07H
07D0 120000      E     LCALL   ?C?LSTPDATA
C51 COMPILER V7.06   MAIN                                                                  12/01/2005 19:02:46 PAGE 64  

07D3 7800        R     MOV     R0,#LOW cc
07D5 E2                MOVX    A,@R0
07D6 FC                MOV     R4,A
07D7 08                INC     R0
07D8 E2                MOVX    A,@R0
07D9 FD                MOV     R5,A
07DA 08                INC     R0
07DB E2                MOVX    A,@R0
07DC FE                MOV     R6,A
07DD 08                INC     R0
07DE E2                MOVX    A,@R0
07DF FF                MOV     R7,A
07E0 7800        R     MOV     R0,#LOW ?_MD5_GG?BYTE+0BH
07E2 120000      E     LCALL   ?C?LSTPDATA
07E5 7800        R     MOV     R0,#LOW pPacket
07E7 E2                MOVX    A,@R0
07E8 FB                MOV     R3,A
07E9 08                INC     R0
07EA E2                MOVX    A,@R0
07EB FA                MOV     R2,A
07EC 08                INC     R0
07ED E2                MOVX    A,@R0
07EE F9                MOV     R1,A
07EF 900028            MOV     DPTR,#028H
07F2 120000      E     LCALL   ?C?LLDOPTR
07F5 7800        R     MOV     R0,#LOW ?_MD5_GG?BYTE+0FH
07F7 120000      E     LCALL   ?C?LSTPDATA
07FA 7800        R     MOV     R0,#LOW ?_MD5_GG?BYTE+013H
07FC 120000      E     LCALL   ?C?LSTKPDATA
07FF 00                DB      00H
0800 00                DB      00H
0801 00                DB      00H
0802 09                DB      09H
0803 900000      R     MOV     DPTR,#MD5_T22
0806 120000      E     LCALL   ?C?LLDCODE
0809 7800        R     MOV     R0,#LOW ?_MD5_GG?BYTE+017H
080B 120000      E     LCALL   ?C?LSTPDATA
080E 7800        R     MOV     R0,#LOW aa
0810 E2                MOVX    A,@R0
0811 FC                MOV     R4,A
0812 08                INC     R0
0813 E2                MOVX    A,@R0
0814 FD                MOV     R5,A
0815 08                INC     R0
0816 E2                MOVX    A,@R0
0817 FE                MOV     R6,A
0818 08                INC     R0
0819 E2                MOVX    A,@R0
081A FF                MOV     R7,A
081B 7BFE              MOV     R3,#0FEH
081D 7A00        R     MOV     R2,#HIGH dd
081F 7900        R     MOV     R1,#LOW dd
0821 120000      R     LCALL   _MD5_GG
                                           ; SOURCE LINE # 319
0824 7800        R     MOV     R0,#LOW aa
0826 E2                MOVX    A,@R0
0827 FC                MOV     R4,A
0828 08                INC     R0
0829 E2                MOVX    A,@R0
082A FD                MOV     R5,A
082B 08                INC     R0
082C E2                MOVX    A,@R0
C51 COMPILER V7.06   MAIN                                                                  12/01/2005 19:02:46 PAGE 65  

082D FE                MOV     R6,A
082E 08                INC     R0
082F E2                MOVX    A,@R0
0830 FF                MOV     R7,A
0831 7800        R     MOV     R0,#LOW ?_MD5_GG?BYTE+07H
0833 120000      E     LCALL   ?C?LSTPDATA
0836 7800        R     MOV     R0,#LOW bb
0838 E2                MOVX    A,@R0
0839 FC                MOV     R4,A
083A 08                INC     R0
083B E2                MOVX    A,@R0
083C FD                MOV     R5,A
083D 08                INC     R0
083E E2                MOVX    A,@R0
083F FE                MOV     R6,A
0840 08                INC     R0
0841 E2                MOVX    A,@R0
0842 FF                MOV     R7,A
0843 7800        R     MOV     R0,#LOW ?_MD5_GG?BYTE+0BH
0845 120000      E     LCALL   ?C?LSTPDATA
0848 7800        R     MOV     R0,#LOW pPacket
084A E2                MOVX    A,@R0
084B FB                MOV     R3,A
084C 08                INC     R0
084D E2                MOVX    A,@R0
084E FA                MOV     R2,A
084F 08                INC     R0
0850 E2                MOVX    A,@R0
0851 F9                MOV     R1,A
0852 90003C            MOV     DPTR,#03CH
0855 120000      E     LCALL   ?C?LLDOPTR
0858 7800        R     MOV     R0,#LOW ?_MD5_GG?BYTE+0FH
085A 120000      E     LCALL   ?C?LSTPDATA
085D 7800        R     MOV     R0,#LOW ?_MD5_GG?BYTE+013H
085F 120000      E     LCALL   ?C?LSTKPDATA
0862 00                DB      00H
0863 00                DB      00H
0864 00                DB      00H
0865 0E                DB      0EH
0866 900000      R     MOV     DPTR,#MD5_T23
0869 120000      E     LCALL   ?C?LLDCODE
086C 7800        R     MOV     R0,#LOW ?_MD5_GG?BYTE+017H
086E 120000      E     LCALL   ?C?LSTPDATA
0871 7800        R     MOV     R0,#LOW dd
0873 E2                MOVX    A,@R0
0874 FC                MOV     R4,A
0875 08                INC     R0
0876 E2                MOVX    A,@R0
0877 FD                MOV     R5,A
0878 08                INC     R0
0879 E2                MOVX    A,@R0
087A FE                MOV     R6,A
087B 08                INC     R0
087C E2                MOVX    A,@R0
087D FF                MOV     R7,A
087E 7BFE              MOV     R3,#0FEH
0880 7A00        R     MOV     R2,#HIGH cc
0882 7900        R     MOV     R1,#LOW cc
0884 120000      R     LCALL   _MD5_GG
                                           ; SOURCE LINE # 320
0887 7800        R     MOV     R0,#LOW dd
0889 E2                MOVX    A,@R0
C51 COMPILER V7.06   MAIN                                                                  12/01/2005 19:02:46 PAGE 66  

088A FC                MOV     R4,A
088B 08                INC     R0
088C E2                MOVX    A,@R0
088D FD                MOV     R5,A
088E 08                INC     R0
088F E2                MOVX    A,@R0
0890 FE                MOV     R6,A
0891 08                INC     R0
0892 E2                MOVX    A,@R0
0893 FF                MOV     R7,A
0894 7800        R     MOV     R0,#LOW ?_MD5_GG?BYTE+07H
0896 120000      E     LCALL   ?C?LSTPDATA
0899 7800        R     MOV     R0,#LOW aa
089B E2                MOVX    A,@R0
089C FC                MOV     R4,A
089D 08                INC     R0
089E E2                MOVX    A,@R0
089F FD                MOV     R5,A
08A0 08                INC     R0
08A1 E2                MOVX    A,@R0
08A2 FE                MOV     R6,A
08A3 08                INC     R0
08A4 E2                MOVX    A,@R0
08A5 FF                MOV     R7,A
08A6 7800        R     MOV     R0,#LOW ?_MD5_GG?BYTE+0BH
08A8 120000      E     LCALL   ?C?LSTPDATA
08AB 7800        R     MOV     R0,#LOW pPacket
08AD E2                MOVX    A,@R0
08AE FB                MOV     R3,A
08AF 08                INC     R0
08B0 E2                MOVX    A,@R0
08B1 FA                MOV     R2,A
08B2 08                INC     R0
08B3 E2                MOVX    A,@R0
08B4 F9                MOV     R1,A
08B5 900010            MOV     DPTR,#010H
08B8 120000      E     LCALL   ?C?LLDOPTR
08BB 7800        R     MOV     R0,#LOW ?_MD5_GG?BYTE+0FH
08BD 120000      E     LCALL   ?C?LSTPDATA
08C0 7800        R     MOV     R0,#LOW ?_MD5_GG?BYTE+013H
08C2 120000      E     LCALL   ?C?LSTKPDATA
08C5 00                DB      00H
08C6 00                DB      00H
08C7 00                DB      00H
08C8 14                DB      014H
08C9 900000      R     MOV     DPTR,#MD5_T24
08CC 120000      E     LCALL   ?C?LLDCODE
08CF 7800        R     MOV     R0,#LOW ?_MD5_GG?BYTE+017H
08D1 120000      E     LCALL   ?C?LSTPDATA
08D4 7800        R     MOV     R0,#LOW cc
08D6 E2                MOVX    A,@R0
08D7 FC                MOV     R4,A
08D8 08                INC     R0
08D9 E2                MOVX    A,@R0
08DA FD                MOV     R5,A
08DB 08                INC     R0
08DC E2                MOVX    A,@R0
08DD FE                MOV     R6,A
08DE 08                INC     R0
08DF E2                MOVX    A,@R0
08E0 FF                MOV     R7,A
08E1 7BFE              MOV     R3,#0FEH
C51 COMPILER V7.06   MAIN                                                                  12/01/2005 19:02:46 PAGE 67  

08E3 7A00        R     MOV     R2,#HIGH bb
08E5 7900        R     MOV     R1,#LOW bb
08E7 120000      R     LCALL   _MD5_GG
                                           ; SOURCE LINE # 321
08EA 7800        R     MOV     R0,#LOW cc
08EC E2                MOVX    A,@R0
08ED FC                MOV     R4,A
08EE 08                INC     R0
08EF E2                MOVX    A,@R0
08F0 FD                MOV     R5,A
08F1 08                INC     R0
08F2 E2                MOVX    A,@R0
08F3 FE                MOV     R6,A
08F4 08                INC     R0
08F5 E2                MOVX    A,@R0
08F6 FF                MOV     R7,A
08F7 7800        R     MOV     R0,#LOW ?_MD5_GG?BYTE+07H
08F9 120000      E     LCALL   ?C?LSTPDATA
08FC 7800        R     MOV     R0,#LOW dd
08FE E2                MOVX    A,@R0
08FF FC                MOV     R4,A
0900 08                INC     R0
0901 E2                MOVX    A,@R0
0902 FD                MOV     R5,A
0903 08                INC     R0
0904 E2                MOVX    A,@R0
0905 FE                MOV     R6,A
0906 08                INC     R0
0907 E2                MOVX    A,@R0
0908 FF                MOV     R7,A
0909 7800        R     MOV     R0,#LOW ?_MD5_GG?BYTE+0BH
090B 120000      E     LCALL   ?C?LSTPDATA
090E 7800        R     MOV     R0,#LOW pPacket
0910 E2                MOVX    A,@R0
0911 FB                MOV     R3,A
0912 08                INC     R0
0913 E2                MOVX    A,@R0
0914 FA                MOV     R2,A
0915 08                INC     R0
0916 E2                MOVX    A,@R0
0917 F9                MOV     R1,A
0918 900024            MOV     DPTR,#024H
091B 120000      E     LCALL   ?C?LLDOPTR
091E 7800        R     MOV     R0,#LOW ?_MD5_GG?BYTE+0FH
0920 120000      E     LCALL   ?C?LSTPDATA
0923 7800        R     MOV     R0,#LOW ?_MD5_GG?BYTE+013H
0925 120000      E     LCALL   ?C?LSTKPDATA
0928 00                DB      00H
0929 00                DB      00H
092A 00                DB      00H
092B 05                DB      05H
092C 900000      R     MOV     DPTR,#MD5_T25
092F 120000      R     LCALL   L?0047
                                           ; SOURCE LINE # 322
0932 7800        R     MOV     R0,#LOW bb
0934 E2                MOVX    A,@R0
0935 FC                MOV     R4,A
0936 08                INC     R0
0937 E2                MOVX    A,@R0
0938 FD                MOV     R5,A
0939 08                INC     R0
093A E2                MOVX    A,@R0
C51 COMPILER V7.06   MAIN                                                                  12/01/2005 19:02:46 PAGE 68  

093B FE                MOV     R6,A
093C 08                INC     R0
093D E2                MOVX    A,@R0
093E FF                MOV     R7,A
093F 7800        R     MOV     R0,#LOW ?_MD5_GG?BYTE+07H
0941 120000      E     LCALL   ?C?LSTPDATA
0944 7800        R     MOV     R0,#LOW cc
0946 E2                MOVX    A,@R0
0947 FC                MOV     R4,A
0948 08                INC     R0
0949 E2                MOVX    A,@R0
094A FD                MOV     R5,A
094B 08                INC     R0
094C E2                MOVX    A,@R0
094D FE                MOV     R6,A
094E 08                INC     R0
094F E2                MOVX    A,@R0
0950 FF                MOV     R7,A
0951 7800        R     MOV     R0,#LOW ?_MD5_GG?BYTE+0BH
0953 120000      E     LCALL   ?C?LSTPDATA
0956 7800        R     MOV     R0,#LOW pPacket
0958 E2                MOVX    A,@R0
0959 FB                MOV     R3,A
095A 08                INC     R0
095B E2                MOVX    A,@R0
095C FA                MOV     R2,A
095D 08                INC     R0
095E E2                MOVX    A,@R0
095F F9                MOV     R1,A
0960 900038            MOV     DPTR,#038H
0963 120000      E     LCALL   ?C?LLDOPTR
0966 7800        R     MOV     R0,#LOW ?_MD5_GG?BYTE+0FH
0968 120000      E     LCALL   ?C?LSTPDATA
096B 7800        R     MOV     R0,#LOW ?_MD5_GG?BYTE+013H
096D 120000      E     LCALL   ?C?LSTKPDATA
0970 00                DB      00H
0971 00                DB      00H
0972 00                DB      00H
0973 09                DB      09H
0974 900000      R     MOV     DPTR,#MD5_T26
0977 120000      E     LCALL   ?C?LLDCODE
097A 7800        R     MOV     R0,#LOW ?_MD5_GG?BYTE+017H
097C 120000      E     LCALL   ?C?LSTPDATA
097F 7800        R     MOV     R0,#LOW aa
0981 E2                MOVX    A,@R0
0982 FC                MOV     R4,A
0983 08                INC     R0
0984 E2                MOVX    A,@R0
0985 FD                MOV     R5,A
0986 08                INC     R0
0987 E2                MOVX    A,@R0
0988 FE                MOV     R6,A
0989 08                INC     R0
098A E2                MOVX    A,@R0
098B FF                MOV     R7,A
098C 7BFE              MOV     R3,#0FEH
098E 7A00        R     MOV     R2,#HIGH dd
0990 7900        R     MOV     R1,#LOW dd
0992 120000      R     LCALL   _MD5_GG
                                           ; SOURCE LINE # 323
0995 7800        R     MOV     R0,#LOW aa
0997 E2                MOVX    A,@R0
C51 COMPILER V7.06   MAIN                                                                  12/01/2005 19:02:46 PAGE 69  

0998 FC                MOV     R4,A
0999 08                INC     R0
099A E2                MOVX    A,@R0
099B FD                MOV     R5,A
099C 08                INC     R0
099D E2                MOVX    A,@R0
099E FE                MOV     R6,A
099F 08                INC     R0
09A0 E2                MOVX    A,@R0
09A1 FF                MOV     R7,A
09A2 7800        R     MOV     R0,#LOW ?_MD5_GG?BYTE+07H
09A4 120000      E     LCALL   ?C?LSTPDATA
09A7 7800        R     MOV     R0,#LOW bb
09A9 E2                MOVX    A,@R0
09AA FC                MOV     R4,A
09AB 08                INC     R0
09AC E2                MOVX    A,@R0
09AD FD                MOV     R5,A
09AE 08                INC     R0
09AF E2                MOVX    A,@R0
09B0 FE                MOV     R6,A
09B1 08                INC     R0
09B2 E2                MOVX    A,@R0
09B3 FF                MOV     R7,A
09B4 7800        R     MOV     R0,#LOW ?_MD5_GG?BYTE+0BH
09B6 120000      E     LCALL   ?C?LSTPDATA
09B9 7800        R     MOV     R0,#LOW pPacket
09BB E2                MOVX    A,@R0
09BC FB                MOV     R3,A
09BD 08                INC     R0
09BE E2                MOVX    A,@R0
09BF FA                MOV     R2,A
09C0 08                INC     R0
09C1 E2                MOVX    A,@R0
09C2 F9                MOV     R1,A
09C3 90000C            MOV     DPTR,#0CH
09C6 120000      E     LCALL   ?C?LLDOPTR
09C9 7800        R     MOV     R0,#LOW ?_MD5_GG?BYTE+0FH
09CB 120000      E     LCALL   ?C?LSTPDATA
09CE 7800        R     MOV     R0,#LOW ?_MD5_GG?BYTE+013H
09D0 120000      E     LCALL   ?C?LSTKPDATA
09D3 00                DB      00H
09D4 00                DB      00H
09D5 00                DB      00H
09D6 0E                DB      0EH
09D7 900000      R     MOV     DPTR,#MD5_T27
09DA 120000      E     LCALL   ?C?LLDCODE
09DD 7800        R     MOV     R0,#LOW ?_MD5_GG?BYTE+017H
09DF 120000      E     LCALL   ?C?LSTPDATA
09E2 7800        R     MOV     R0,#LOW dd
09E4 E2                MOVX    A,@R0
09E5 FC                MOV     R4,A
09E6 08                INC     R0
09E7 E2                MOVX    A,@R0
09E8 FD                MOV     R5,A
09E9 08                INC     R0
09EA E2                MOVX    A,@R0
09EB FE                MOV     R6,A
09EC 08                INC     R0
09ED E2                MOVX    A,@R0
09EE FF                MOV     R7,A
09EF 7BFE              MOV     R3,#0FEH
C51 COMPILER V7.06   MAIN                                                                  12/01/2005 19:02:46 PAGE 70  

09F1 7A00        R     MOV     R2,#HIGH cc
09F3 7900        R     MOV     R1,#LOW cc
09F5 120000      R     LCALL   _MD5_GG
                                           ; SOURCE LINE # 324
09F8 7800        R     MOV     R0,#LOW dd
09FA E2                MOVX    A,@R0
09FB FC                MOV     R4,A
09FC 08                INC     R0
09FD E2                MOVX    A,@R0
09FE FD                MOV     R5,A
09FF 08                INC     R0
0A00 E2                MOVX    A,@R0
0A01 FE                MOV     R6,A
0A02 08                INC     R0
0A03 E2                MOVX    A,@R0
0A04 FF                MOV     R7,A
0A05 7800        R     MOV     R0,#LOW ?_MD5_GG?BYTE+07H
0A07 120000      E     LCALL   ?C?LSTPDATA
0A0A 7800        R     MOV     R0,#LOW aa
0A0C E2                MOVX    A,@R0
0A0D FC                MOV     R4,A
0A0E 08                INC     R0
0A0F E2                MOVX    A,@R0
0A10 FD                MOV     R5,A
0A11 08                INC     R0
0A12 E2                MOVX    A,@R0
0A13 FE                MOV     R6,A
0A14 08                INC     R0
0A15 E2                MOVX    A,@R0
0A16 FF                MOV     R7,A
0A17 7800        R     MOV     R0,#LOW ?_MD5_GG?BYTE+0BH
0A19 120000      E     LCALL   ?C?LSTPDATA
0A1C 7800        R     MOV     R0,#LOW pPacket
0A1E E2                MOVX    A,@R0
0A1F FB                MOV     R3,A
0A20 08                INC     R0
0A21 E2                MOVX    A,@R0
0A22 FA                MOV     R2,A
0A23 08                INC     R0
0A24 E2                MOVX    A,@R0
0A25 F9                MOV     R1,A
0A26 900020            MOV     DPTR,#020H
0A29 120000      E     LCALL   ?C?LLDOPTR
0A2C 7800        R     MOV     R0,#LOW ?_MD5_GG?BYTE+0FH
0A2E 120000      E     LCALL   ?C?LSTPDATA
0A31 7800        R     MOV     R0,#LOW ?_MD5_GG?BYTE+013H
0A33 120000      E     LCALL   ?C?LSTKPDATA
0A36 00                DB      00H
0A37 00                DB      00H
0A38 00                DB      00H
0A39 14                DB      014H
0A3A 900000      R     MOV     DPTR,#MD5_T28
0A3D 120000      E     LCALL   ?C?LLDCODE
0A40 7800        R     MOV     R0,#LOW ?_MD5_GG?BYTE+017H
0A42 120000      E     LCALL   ?C?LSTPDATA
0A45 7800        R     MOV     R0,#LOW cc
0A47 E2                MOVX    A,@R0
0A48 FC                MOV     R4,A
0A49 08                INC     R0
0A4A E2                MOVX    A,@R0
0A4B FD                MOV     R5,A
0A4C 08                INC     R0
C51 COMPILER V7.06   MAIN                                                                  12/01/2005 19:02:46 PAGE 71  

0A4D E2                MOVX    A,@R0
0A4E FE                MOV     R6,A
0A4F 08                INC     R0
0A50 E2                MOVX    A,@R0
0A51 FF                MOV     R7,A
0A52 7BFE              MOV     R3,#0FEH
0A54 7A00        R     MOV     R2,#HIGH bb
0A56 7900        R     MOV     R1,#LOW bb
0A58 120000      R     LCALL   _MD5_GG
                                           ; SOURCE LINE # 325
0A5B 7800        R     MOV     R0,#LOW cc
0A5D E2                MOVX    A,@R0
0A5E FC                MOV     R4,A
0A5F 08                INC     R0
0A60 E2                MOVX    A,@R0
0A61 FD                MOV     R5,A
0A62 08                INC     R0
0A63 E2                MOVX    A,@R0
0A64 FE                MOV     R6,A
0A65 08                INC     R0
0A66 E2                MOVX    A,@R0
0A67 FF                MOV     R7,A
0A68 7800        R     MOV     R0,#LOW ?_MD5_GG?BYTE+07H
0A6A 120000      E     LCALL   ?C?LSTPDATA
0A6D 7800        R     MOV     R0,#LOW dd
0A6F E2                MOVX    A,@R0
0A70 FC                MOV     R4,A
0A71 08                INC     R0
0A72 E2                MOVX    A,@R0
0A73 FD                MOV     R5,A
0A74 08                INC     R0
0A75 E2                MOVX    A,@R0
0A76 FE                MOV     R6,A
0A77 08                INC     R0
0A78 E2                MOVX    A,@R0
0A79 FF                MOV     R7,A
0A7A 7800        R     MOV     R0,#LOW ?_MD5_GG?BYTE+0BH
0A7C 120000      E     LCALL   ?C?LSTPDATA
0A7F 7800        R     MOV     R0,#LOW pPacket
0A81 E2                MOVX    A,@R0
0A82 FB                MOV     R3,A
0A83 08                INC     R0
0A84 E2                MOVX    A,@R0
0A85 FA                MOV     R2,A
0A86 08                INC     R0
0A87 E2                MOVX    A,@R0
0A88 F9                MOV     R1,A
0A89 900034            MOV     DPTR,#034H
0A8C 120000      E     LCALL   ?C?LLDOPTR
0A8F 7800        R     MOV     R0,#LOW ?_MD5_GG?BYTE+0FH
0A91 120000      E     LCALL   ?C?LSTPDATA
0A94 7800        R     MOV     R0,#LOW ?_MD5_GG?BYTE+013H
0A96 120000      E     LCALL   ?C?LSTKPDATA
0A99 00                DB      00H
0A9A 00                DB      00H
0A9B 00                DB      00H
0A9C 05                DB      05H
0A9D 900000      R     MOV     DPTR,#MD5_T29
0AA0 120000      R     LCALL   L?0047
                                           ; SOURCE LINE # 326
0AA3 7800        R     MOV     R0,#LOW bb
0AA5 E2                MOVX    A,@R0
C51 COMPILER V7.06   MAIN                                                                  12/01/2005 19:02:46 PAGE 72  

0AA6 FC                MOV     R4,A
0AA7 08                INC     R0
0AA8 E2                MOVX    A,@R0
0AA9 FD                MOV     R5,A
0AAA 08                INC     R0
0AAB E2                MOVX    A,@R0
0AAC FE                MOV     R6,A
0AAD 08                INC     R0
0AAE E2                MOVX    A,@R0
0AAF FF                MOV     R7,A
0AB0 7800        R     MOV     R0,#LOW ?_MD5_GG?BYTE+07H
0AB2 120000      E     LCALL   ?C?LSTPDATA
0AB5 7800        R     MOV     R0,#LOW cc
0AB7 E2                MOVX    A,@R0
0AB8 FC                MOV     R4,A
0AB9 08                INC     R0
0ABA E2                MOVX    A,@R0
0ABB FD                MOV     R5,A
0ABC 08                INC     R0
0ABD E2                MOVX    A,@R0
0ABE FE                MOV     R6,A
0ABF 08                INC     R0
0AC0 E2                MOVX    A,@R0
0AC1 FF                MOV     R7,A
0AC2 7800        R     MOV     R0,#LOW ?_MD5_GG?BYTE+0BH
0AC4 120000      E     LCALL   ?C?LSTPDATA
0AC7 7800        R     MOV     R0,#LOW pPacket
0AC9 E2                MOVX    A,@R0
0ACA FB                MOV     R3,A
0ACB 08                INC     R0
0ACC E2                MOVX    A,@R0
0ACD FA                MOV     R2,A
0ACE 08                INC     R0
0ACF E2                MOVX    A,@R0
0AD0 F9                MOV     R1,A
0AD1 900008            MOV     DPTR,#08H
0AD4 120000      E     LCALL   ?C?LLDOPTR
0AD7 7800        R     MOV     R0,#LOW ?_MD5_GG?BYTE+0FH
0AD9 120000      E     LCALL   ?C?LSTPDATA
0ADC 7800        R     MOV     R0,#LOW ?_MD5_GG?BYTE+013H
0ADE 120000      E     LCALL   ?C?LSTKPDATA
0AE1 00                DB      00H
0AE2 00                DB      00H
0AE3 00                DB      00H
0AE4 09                DB      09H
0AE5 900000      R     MOV     DPTR,#MD5_T30
0AE8 120000      E     LCALL   ?C?LLDCODE
0AEB 7800        R     MOV     R0,#LOW ?_MD5_GG?BYTE+017H
0AED 120000      E     LCALL   ?C?LSTPDATA
0AF0 7800        R     MOV     R0,#LOW aa
0AF2 E2                MOVX    A,@R0
0AF3 FC                MOV     R4,A
0AF4 08                INC     R0
0AF5 E2                MOVX    A,@R0
0AF6 FD                MOV     R5,A
0AF7 08                INC     R0
0AF8 E2                MOVX    A,@R0
0AF9 FE                MOV     R6,A
0AFA 08                INC     R0
0AFB E2                MOVX    A,@R0
0AFC FF                MOV     R7,A
0AFD 7BFE              MOV     R3,#0FEH
C51 COMPILER V7.06   MAIN                                                                  12/01/2005 19:02:46 PAGE 73  

0AFF 7A00        R     MOV     R2,#HIGH dd
0B01 7900        R     MOV     R1,#LOW dd
0B03 120000      R     LCALL   _MD5_GG
                                           ; SOURCE LINE # 327
0B06 7800        R     MOV     R0,#LOW aa
0B08 E2                MOVX    A,@R0
0B09 FC                MOV     R4,A
0B0A 08                INC     R0
0B0B E2                MOVX    A,@R0
0B0C FD                MOV     R5,A
0B0D 08                INC     R0
0B0E E2                MOVX    A,@R0
0B0F FE                MOV     R6,A
0B10 08                INC     R0
0B11 E2                MOVX    A,@R0
0B12 FF                MOV     R7,A
0B13 7800        R     MOV     R0,#LOW ?_MD5_GG?BYTE+07H
0B15 120000      E     LCALL   ?C?LSTPDATA
0B18 7800        R     MOV     R0,#LOW bb
0B1A E2                MOVX    A,@R0
0B1B FC                MOV     R4,A
0B1C 08                INC     R0
0B1D E2                MOVX    A,@R0
0B1E FD                MOV     R5,A
0B1F 08                INC     R0
0B20 E2                MOVX    A,@R0
0B21 FE                MOV     R6,A
0B22 08                INC     R0
0B23 E2                MOVX    A,@R0
0B24 FF                MOV     R7,A
0B25 7800        R     MOV     R0,#LOW ?_MD5_GG?BYTE+0BH
0B27 120000      E     LCALL   ?C?LSTPDATA
0B2A 7800        R     MOV     R0,#LOW pPacket
0B2C E2                MOVX    A,@R0
0B2D FB                MOV     R3,A
0B2E 08                INC     R0
0B2F E2                MOVX    A,@R0
0B30 FA                MOV     R2,A
0B31 08                INC     R0
0B32 E2                MOVX    A,@R0
0B33 F9                MOV     R1,A
0B34 90001C            MOV     DPTR,#01CH
0B37 120000      E     LCALL   ?C?LLDOPTR
0B3A 7800        R     MOV     R0,#LOW ?_MD5_GG?BYTE+0FH
0B3C 120000      E     LCALL   ?C?LSTPDATA
0B3F 7800        R     MOV     R0,#LOW ?_MD5_GG?BYTE+013H
0B41 120000      E     LCALL   ?C?LSTKPDATA
0B44 00                DB      00H
0B45 00                DB      00H
0B46 00                DB      00H
0B47 0E                DB      0EH
0B48 900000      R     MOV     DPTR,#MD5_T31
0B4B 120000      E     LCALL   ?C?LLDCODE
0B4E 7800        R     MOV     R0,#LOW ?_MD5_GG?BYTE+017H
0B50 120000      E     LCALL   ?C?LSTPDATA
0B53 7800        R     MOV     R0,#LOW dd
0B55 E2                MOVX    A,@R0
0B56 FC                MOV     R4,A
0B57 08                INC     R0
0B58 E2                MOVX    A,@R0
0B59 FD                MOV     R5,A
0B5A 08                INC     R0
C51 COMPILER V7.06   MAIN                                                                  12/01/2005 19:02:46 PAGE 74  

0B5B E2                MOVX    A,@R0
0B5C FE                MOV     R6,A
0B5D 08                INC     R0
0B5E E2                MOVX    A,@R0
0B5F FF                MOV     R7,A
0B60 7BFE              MOV     R3,#0FEH
0B62 7A00        R     MOV     R2,#HIGH cc
0B64 7900        R     MOV     R1,#LOW cc
0B66 120000      R     LCALL   _MD5_GG
                                           ; SOURCE LINE # 328
0B69 7800        R     MOV     R0,#LOW dd
0B6B E2                MOVX    A,@R0
0B6C FC                MOV     R4,A
0B6D 08                INC     R0
0B6E E2                MOVX    A,@R0
0B6F FD                MOV     R5,A
0B70 08                INC     R0
0B71 E2                MOVX    A,@R0
0B72 FE                MOV     R6,A
0B73 08                INC     R0
0B74 E2                MOVX    A,@R0
0B75 FF                MOV     R7,A
0B76 7800        R     MOV     R0,#LOW ?_MD5_GG?BYTE+07H
0B78 120000      E     LCALL   ?C?LSTPDATA
0B7B 7800        R     MOV     R0,#LOW aa
0B7D E2                MOVX    A,@R0
0B7E FC                MOV     R4,A
0B7F 08                INC     R0
0B80 E2                MOVX    A,@R0
0B81 FD                MOV     R5,A
0B82 08                INC     R0
0B83 E2                MOVX    A,@R0
0B84 FE                MOV     R6,A
0B85 08                INC     R0
0B86 E2                MOVX    A,@R0
0B87 FF                MOV     R7,A
0B88 7800        R     MOV     R0,#LOW ?_MD5_GG?BYTE+0BH
0B8A 120000      E     LCALL   ?C?LSTPDATA
0B8D 7800        R     MOV     R0,#LOW pPacket
0B8F E2                MOVX    A,@R0
0B90 FB                MOV     R3,A
0B91 08                INC     R0
0B92 E2                MOVX    A,@R0
0B93 FA                MOV     R2,A
0B94 08                INC     R0
0B95 E2                MOVX    A,@R0
0B96 F9                MOV     R1,A
0B97 900030            MOV     DPTR,#030H
0B9A 120000      E     LCALL   ?C?LLDOPTR
0B9D 7800        R     MOV     R0,#LOW ?_MD5_GG?BYTE+0FH
0B9F 120000      E     LCALL   ?C?LSTPDATA
0BA2 7800        R     MOV     R0,#LOW ?_MD5_GG?BYTE+013H
0BA4 120000      E     LCALL   ?C?LSTKPDATA
0BA7 00                DB      00H
0BA8 00                DB      00H
0BA9 00                DB      00H
0BAA 14                DB      014H
0BAB 900000      R     MOV     DPTR,#MD5_T32
0BAE 120000      E     LCALL   ?C?LLDCODE
0BB1 7800        R     MOV     R0,#LOW ?_MD5_GG?BYTE+017H
0BB3 120000      E     LCALL   ?C?LSTPDATA
0BB6 7800        R     MOV     R0,#LOW cc
C51 COMPILER V7.06   MAIN                                                                  12/01/2005 19:02:46 PAGE 75  

0BB8 E2                MOVX    A,@R0
0BB9 FC                MOV     R4,A
0BBA 08                INC     R0
0BBB E2                MOVX    A,@R0
0BBC FD                MOV     R5,A
0BBD 08                INC     R0
0BBE E2                MOVX    A,@R0
0BBF FE                MOV     R6,A
0BC0 08                INC     R0
0BC1 E2                MOVX    A,@R0
0BC2 FF                MOV     R7,A
0BC3 7BFE              MOV     R3,#0FEH
0BC5 7A00        R     MOV     R2,#HIGH bb
0BC7 7900        R     MOV     R1,#LOW bb
0BC9 120000      R     LCALL   _MD5_GG
                                           ; SOURCE LINE # 330
0BCC 7800        R     MOV     R0,#LOW cc
0BCE E2                MOVX    A,@R0
0BCF FC                MOV     R4,A
0BD0 08                INC     R0
0BD1 E2                MOVX    A,@R0
0BD2 FD                MOV     R5,A
0BD3 08                INC     R0
0BD4 E2                MOVX    A,@R0
0BD5 FE                MOV     R6,A
0BD6 08                INC     R0
0BD7 E2                MOVX    A,@R0
0BD8 FF                MOV     R7,A
0BD9 7800        R     MOV     R0,#LOW ?_MD5_HH?BYTE+07H
0BDB 120000      E     LCALL   ?C?LSTPDATA
0BDE 7800        R     MOV     R0,#LOW dd
0BE0 E2                MOVX    A,@R0
0BE1 FC                MOV     R4,A
0BE2 08                INC     R0
0BE3 E2                MOVX    A,@R0
0BE4 FD                MOV     R5,A
0BE5 08                INC     R0
0BE6 E2                MOVX    A,@R0
0BE7 FE                MOV     R6,A
0BE8 08                INC     R0
0BE9 E2                MOVX    A,@R0
0BEA FF                MOV     R7,A
0BEB 7800        R     MOV     R0,#LOW ?_MD5_HH?BYTE+0BH
0BED 120000      E     LCALL   ?C?LSTPDATA
0BF0 7800        R     MOV     R0,#LOW pPacket
0BF2 E2                MOVX    A,@R0
0BF3 FB                MOV     R3,A
0BF4 08                INC     R0
0BF5 E2                MOVX    A,@R0
0BF6 FA                MOV     R2,A
0BF7 08                INC     R0
0BF8 E2                MOVX    A,@R0
0BF9 F9                MOV     R1,A
0BFA 900014            MOV     DPTR,#014H
0BFD 120000      E     LCALL   ?C?LLDOPTR
0C00 7800        R     MOV     R0,#LOW ?_MD5_HH?BYTE+0FH
0C02 120000      E     LCALL   ?C?LSTPDATA
0C05 7800        R     MOV     R0,#LOW ?_MD5_HH?BYTE+013H
0C07 120000      E     LCALL   ?C?LSTKPDATA
0C0A 00                DB      00H
0C0B 00                DB      00H
0C0C 00                DB      00H
C51 COMPILER V7.06   MAIN                                                                  12/01/2005 19:02:46 PAGE 76  

0C0D 04                DB      04H
0C0E 900000      R     MOV     DPTR,#MD5_T33
0C11 120000      R     LCALL   L?0048
                                           ; SOURCE LINE # 331
0C14 7800        R     MOV     R0,#LOW bb
0C16 E2                MOVX    A,@R0
0C17 FC                MOV     R4,A
0C18 08                INC     R0
0C19 E2                MOVX    A,@R0
0C1A FD                MOV     R5,A
0C1B 08                INC     R0
0C1C E2                MOVX    A,@R0
0C1D FE                MOV     R6,A
0C1E 08                INC     R0
0C1F E2                MOVX    A,@R0
0C20 FF                MOV     R7,A
0C21 7800        R     MOV     R0,#LOW ?_MD5_HH?BYTE+07H
0C23 120000      E     LCALL   ?C?LSTPDATA
0C26 7800        R     MOV     R0,#LOW cc
0C28 E2                MOVX    A,@R0
0C29 FC                MOV     R4,A
0C2A 08                INC     R0
0C2B E2                MOVX    A,@R0
0C2C FD                MOV     R5,A
0C2D 08                INC     R0
0C2E E2                MOVX    A,@R0
0C2F FE                MOV     R6,A
0C30 08                INC     R0
0C31 E2                MOVX    A,@R0
0C32 FF                MOV     R7,A
0C33 7800        R     MOV     R0,#LOW ?_MD5_HH?BYTE+0BH
0C35 120000      E     LCALL   ?C?LSTPDATA
0C38 7800        R     MOV     R0,#LOW pPacket
0C3A E2                MOVX    A,@R0
0C3B FB                MOV     R3,A
0C3C 08                INC     R0
0C3D E2                MOVX    A,@R0
0C3E FA                MOV     R2,A
0C3F 08                INC     R0
0C40 E2                MOVX    A,@R0
0C41 F9                MOV     R1,A
0C42 900020            MOV     DPTR,#020H
0C45 120000      E     LCALL   ?C?LLDOPTR
0C48 7800        R     MOV     R0,#LOW ?_MD5_HH?BYTE+0FH
0C4A 120000      E     LCALL   ?C?LSTPDATA
0C4D 7800        R     MOV     R0,#LOW ?_MD5_HH?BYTE+013H
0C4F 120000      E     LCALL   ?C?LSTKPDATA
0C52 00                DB      00H
0C53 00                DB      00H
0C54 00                DB      00H
0C55 0B                DB      0BH
0C56 900000      R     MOV     DPTR,#MD5_T34
0C59 120000      E     LCALL   ?C?LLDCODE
0C5C 7800        R     MOV     R0,#LOW ?_MD5_HH?BYTE+017H
0C5E 120000      E     LCALL   ?C?LSTPDATA
0C61 7800        R     MOV     R0,#LOW aa
0C63 E2                MOVX    A,@R0
0C64 FC                MOV     R4,A
0C65 08                INC     R0
0C66 E2                MOVX    A,@R0
0C67 FD                MOV     R5,A
0C68 08                INC     R0
C51 COMPILER V7.06   MAIN                                                                  12/01/2005 19:02:46 PAGE 77  

0C69 E2                MOVX    A,@R0
0C6A FE                MOV     R6,A
0C6B 08                INC     R0
0C6C E2                MOVX    A,@R0
0C6D FF                MOV     R7,A
0C6E 7BFE              MOV     R3,#0FEH
0C70 7A00        R     MOV     R2,#HIGH dd
0C72 7900        R     MOV     R1,#LOW dd
0C74 120000      R     LCALL   _MD5_HH
                                           ; SOURCE LINE # 332
0C77 7800        R     MOV     R0,#LOW aa
0C79 E2                MOVX    A,@R0
0C7A FC                MOV     R4,A
0C7B 08                INC     R0
0C7C E2                MOVX    A,@R0
0C7D FD                MOV     R5,A
0C7E 08                INC     R0
0C7F E2                MOVX    A,@R0
0C80 FE                MOV     R6,A
0C81 08                INC     R0
0C82 E2                MOVX    A,@R0
0C83 FF                MOV     R7,A
0C84 7800        R     MOV     R0,#LOW ?_MD5_HH?BYTE+07H
0C86 120000      E     LCALL   ?C?LSTPDATA
0C89 7800        R     MOV     R0,#LOW bb
0C8B E2                MOVX    A,@R0
0C8C FC                MOV     R4,A
0C8D 08                INC     R0
0C8E E2                MOVX    A,@R0
0C8F FD                MOV     R5,A
0C90 08                INC     R0
0C91 E2                MOVX    A,@R0
0C92 FE                MOV     R6,A
0C93 08                INC     R0
0C94 E2                MOVX    A,@R0
0C95 FF                MOV     R7,A
0C96 7800        R     MOV     R0,#LOW ?_MD5_HH?BYTE+0BH
0C98 120000      E     LCALL   ?C?LSTPDATA
0C9B 7800        R     MOV     R0,#LOW pPacket
0C9D E2                MOVX    A,@R0
0C9E FB                MOV     R3,A
0C9F 08                INC     R0
0CA0 E2                MOVX    A,@R0
0CA1 FA                MOV     R2,A
0CA2 08                INC     R0
0CA3 E2                MOVX    A,@R0
0CA4 F9                MOV     R1,A
0CA5 90002C            MOV     DPTR,#02CH
0CA8 120000      E     LCALL   ?C?LLDOPTR
0CAB 7800        R     MOV     R0,#LOW ?_MD5_HH?BYTE+0FH
0CAD 120000      E     LCALL   ?C?LSTPDATA
0CB0 7800        R     MOV     R0,#LOW ?_MD5_HH?BYTE+013H
0CB2 120000      E     LCALL   ?C?LSTKPDATA
0CB5 00                DB      00H
0CB6 00                DB      00H
0CB7 00                DB      00H
0CB8 10                DB      010H
0CB9 900000      R     MOV     DPTR,#MD5_T35
0CBC 120000      E     LCALL   ?C?LLDCODE
0CBF 7800        R     MOV     R0,#LOW ?_MD5_HH?BYTE+017H
0CC1 120000      E     LCALL   ?C?LSTPDATA
0CC4 7800        R     MOV     R0,#LOW dd
C51 COMPILER V7.06   MAIN                                                                  12/01/2005 19:02:46 PAGE 78  

0CC6 E2                MOVX    A,@R0
0CC7 FC                MOV     R4,A
0CC8 08                INC     R0
0CC9 E2                MOVX    A,@R0
0CCA FD                MOV     R5,A
0CCB 08                INC     R0
0CCC E2                MOVX    A,@R0
0CCD FE                MOV     R6,A
0CCE 08                INC     R0
0CCF E2                MOVX    A,@R0
0CD0 FF                MOV     R7,A
0CD1 7BFE              MOV     R3,#0FEH
0CD3 7A00        R     MOV     R2,#HIGH cc
0CD5 7900        R     MOV     R1,#LOW cc
0CD7 120000      R     LCALL   _MD5_HH
                                           ; SOURCE LINE # 333
0CDA 7800        R     MOV     R0,#LOW dd
0CDC E2                MOVX    A,@R0
0CDD FC                MOV     R4,A
0CDE 08                INC     R0
0CDF E2                MOVX    A,@R0
0CE0 FD                MOV     R5,A
0CE1 08                INC     R0
0CE2 E2                MOVX    A,@R0
0CE3 FE                MOV     R6,A
0CE4 08                INC     R0
0CE5 E2                MOVX    A,@R0
0CE6 FF                MOV     R7,A
0CE7 7800        R     MOV     R0,#LOW ?_MD5_HH?BYTE+07H
0CE9 120000      E     LCALL   ?C?LSTPDATA
0CEC 7800        R     MOV     R0,#LOW aa
0CEE E2                MOVX    A,@R0
0CEF FC                MOV     R4,A
0CF0 08                INC     R0
0CF1 E2                MOVX    A,@R0
0CF2 FD                MOV     R5,A
0CF3 08                INC     R0
0CF4 E2                MOVX    A,@R0
0CF5 FE                MOV     R6,A
0CF6 08                INC     R0
0CF7 E2                MOVX    A,@R0
0CF8 FF                MOV     R7,A
0CF9 7800        R     MOV     R0,#LOW ?_MD5_HH?BYTE+0BH
0CFB 120000      E     LCALL   ?C?LSTPDATA
0CFE 7800        R     MOV     R0,#LOW pPacket
0D00 E2                MOVX    A,@R0
0D01 FB                MOV     R3,A
0D02 08                INC     R0
0D03 E2                MOVX    A,@R0
0D04 FA                MOV     R2,A
0D05 08                INC     R0
0D06 E2                MOVX    A,@R0
0D07 F9                MOV     R1,A
0D08 900038            MOV     DPTR,#038H
0D0B 120000      E     LCALL   ?C?LLDOPTR
0D0E 7800        R     MOV     R0,#LOW ?_MD5_HH?BYTE+0FH
0D10 120000      E     LCALL   ?C?LSTPDATA
0D13 7800        R     MOV     R0,#LOW ?_MD5_HH?BYTE+013H
0D15 120000      E     LCALL   ?C?LSTKPDATA
0D18 00                DB      00H
0D19 00                DB      00H
0D1A 00                DB      00H
C51 COMPILER V7.06   MAIN                                                                  12/01/2005 19:02:46 PAGE 79  

0D1B 17                DB      017H
0D1C 900000      R     MOV     DPTR,#MD5_T36
0D1F 120000      E     LCALL   ?C?LLDCODE
0D22 7800        R     MOV     R0,#LOW ?_MD5_HH?BYTE+017H
0D24 120000      E     LCALL   ?C?LSTPDATA
0D27 7800        R     MOV     R0,#LOW cc
0D29 E2                MOVX    A,@R0
0D2A FC                MOV     R4,A
0D2B 08                INC     R0
0D2C E2                MOVX    A,@R0
0D2D FD                MOV     R5,A
0D2E 08                INC     R0
0D2F E2                MOVX    A,@R0
0D30 FE                MOV     R6,A
0D31 08                INC     R0
0D32 E2                MOVX    A,@R0
0D33 FF                MOV     R7,A
0D34 7BFE              MOV     R3,#0FEH
0D36 7A00        R     MOV     R2,#HIGH bb
0D38 7900        R     MOV     R1,#LOW bb
0D3A 120000      R     LCALL   _MD5_HH
                                           ; SOURCE LINE # 334
0D3D 7800        R     MOV     R0,#LOW cc
0D3F E2                MOVX    A,@R0
0D40 FC                MOV     R4,A
0D41 08                INC     R0
0D42 E2                MOVX    A,@R0
0D43 FD                MOV     R5,A
0D44 08                INC     R0
0D45 E2                MOVX    A,@R0
0D46 FE                MOV     R6,A
0D47 08                INC     R0
0D48 E2                MOVX    A,@R0
0D49 FF                MOV     R7,A
0D4A 7800        R     MOV     R0,#LOW ?_MD5_HH?BYTE+07H
0D4C 120000      E     LCALL   ?C?LSTPDATA
0D4F 7800        R     MOV     R0,#LOW dd
0D51 E2                MOVX    A,@R0
0D52 FC                MOV     R4,A
0D53 08                INC     R0
0D54 E2                MOVX    A,@R0
0D55 FD                MOV     R5,A
0D56 08                INC     R0
0D57 E2                MOVX    A,@R0
0D58 FE                MOV     R6,A
0D59 08                INC     R0
0D5A E2                MOVX    A,@R0
0D5B FF                MOV     R7,A
0D5C 7800        R     MOV     R0,#LOW ?_MD5_HH?BYTE+0BH
0D5E 120000      E     LCALL   ?C?LSTPDATA
0D61 7800        R     MOV     R0,#LOW pPacket
0D63 E2                MOVX    A,@R0
0D64 FB                MOV     R3,A
0D65 08                INC     R0
0D66 E2                MOVX    A,@R0
0D67 FA                MOV     R2,A
0D68 08                INC     R0
0D69 E2                MOVX    A,@R0
0D6A F9                MOV     R1,A
0D6B 900004            MOV     DPTR,#04H
0D6E 120000      E     LCALL   ?C?LLDOPTR
0D71 7800        R     MOV     R0,#LOW ?_MD5_HH?BYTE+0FH
C51 COMPILER V7.06   MAIN                                                                  12/01/2005 19:02:46 PAGE 80  

0D73 120000      E     LCALL   ?C?LSTPDATA
0D76 7800        R     MOV     R0,#LOW ?_MD5_HH?BYTE+013H
0D78 120000      E     LCALL   ?C?LSTKPDATA
0D7B 00                DB      00H
0D7C 00                DB      00H
0D7D 00                DB      00H
0D7E 04                DB      04H
0D7F 900000      R     MOV     DPTR,#MD5_T37
0D82 120000      R     LCALL   L?0048
                                           ; SOURCE LINE # 335
0D85 7800        R     MOV     R0,#LOW bb
0D87 E2                MOVX    A,@R0
0D88 FC                MOV     R4,A
0D89 08                INC     R0
0D8A E2                MOVX    A,@R0
0D8B FD                MOV     R5,A
0D8C 08                INC     R0
0D8D E2                MOVX    A,@R0
0D8E FE                MOV     R6,A
0D8F 08                INC     R0
0D90 E2                MOVX    A,@R0
0D91 FF                MOV     R7,A
0D92 7800        R     MOV     R0,#LOW ?_MD5_HH?BYTE+07H
0D94 120000      E     LCALL   ?C?LSTPDATA
0D97 7800        R     MOV     R0,#LOW cc
0D99 E2                MOVX    A,@R0
0D9A FC                MOV     R4,A
0D9B 08                INC     R0
0D9C E2                MOVX    A,@R0
0D9D FD                MOV     R5,A
0D9E 08                INC     R0
0D9F E2                MOVX    A,@R0
0DA0 FE                MOV     R6,A
0DA1 08                INC     R0
0DA2 E2                MOVX    A,@R0
0DA3 FF                MOV     R7,A
0DA4 7800        R     MOV     R0,#LOW ?_MD5_HH?BYTE+0BH
0DA6 120000      E     LCALL   ?C?LSTPDATA
0DA9 7800        R     MOV     R0,#LOW pPacket
0DAB E2                MOVX    A,@R0
0DAC FB                MOV     R3,A
0DAD 08                INC     R0
0DAE E2                MOVX    A,@R0
0DAF FA                MOV     R2,A
0DB0 08                INC     R0
0DB1 E2                MOVX    A,@R0
0DB2 F9                MOV     R1,A
0DB3 900010            MOV     DPTR,#010H
0DB6 120000      E     LCALL   ?C?LLDOPTR
0DB9 7800        R     MOV     R0,#LOW ?_MD5_HH?BYTE+0FH
0DBB 120000      E     LCALL   ?C?LSTPDATA
0DBE 7800        R     MOV     R0,#LOW ?_MD5_HH?BYTE+013H
0DC0 120000      E     LCALL   ?C?LSTKPDATA
0DC3 00                DB      00H
0DC4 00                DB      00H
0DC5 00                DB      00H
0DC6 0B                DB      0BH
0DC7 900000      R     MOV     DPTR,#MD5_T38
0DCA 120000      E     LCALL   ?C?LLDCODE
0DCD 7800        R     MOV     R0,#LOW ?_MD5_HH?BYTE+017H
0DCF 120000      E     LCALL   ?C?LSTPDATA
0DD2 7800        R     MOV     R0,#LOW aa
C51 COMPILER V7.06   MAIN                                                                  12/01/2005 19:02:46 PAGE 81  

0DD4 E2                MOVX    A,@R0
0DD5 FC                MOV     R4,A
0DD6 08                INC     R0
0DD7 E2                MOVX    A,@R0
0DD8 FD                MOV     R5,A
0DD9 08                INC     R0
0DDA E2                MOVX    A,@R0
0DDB FE                MOV     R6,A
0DDC 08                INC     R0
0DDD E2                MOVX    A,@R0
0DDE FF                MOV     R7,A
0DDF 7BFE              MOV     R3,#0FEH
0DE1 7A00        R     MOV     R2,#HIGH dd
0DE3 7900        R     MOV     R1,#LOW dd
0DE5 120000      R     LCALL   _MD5_HH
                                           ; SOURCE LINE # 336
0DE8 7800        R     MOV     R0,#LOW aa
0DEA E2                MOVX    A,@R0
0DEB FC                MOV     R4,A
0DEC 08                INC     R0
0DED E2                MOVX    A,@R0
0DEE FD                MOV     R5,A
0DEF 08                INC     R0
0DF0 E2                MOVX    A,@R0
0DF1 FE                MOV     R6,A
0DF2 08                INC     R0
0DF3 E2                MOVX    A,@R0
0DF4 FF                MOV     R7,A
0DF5 7800        R     MOV     R0,#LOW ?_MD5_HH?BYTE+07H
0DF7 120000      E     LCALL   ?C?LSTPDATA
0DFA 7800        R     MOV     R0,#LOW bb
0DFC E2                MOVX    A,@R0
0DFD FC                MOV     R4,A
0DFE 08                INC     R0
0DFF E2                MOVX    A,@R0
0E00 FD                MOV     R5,A
0E01 08                INC     R0
0E02 E2                MOVX    A,@R0
0E03 FE                MOV     R6,A
0E04 08                INC     R0
0E05 E2                MOVX    A,@R0
0E06 FF                MOV     R7,A
0E07 7800        R     MOV     R0,#LOW ?_MD5_HH?BYTE+0BH
0E09 120000      E     LCALL   ?C?LSTPDATA
0E0C 7800        R     MOV     R0,#LOW pPacket
0E0E E2                MOVX    A,@R0
0E0F FB                MOV     R3,A
0E10 08                INC     R0
0E11 E2                MOVX    A,@R0
0E12 FA                MOV     R2,A
0E13 08                INC     R0
0E14 E2                MOVX    A,@R0
0E15 F9                MOV     R1,A
0E16 90001C            MOV     DPTR,#01CH
0E19 120000      E     LCALL   ?C?LLDOPTR
0E1C 7800        R     MOV     R0,#LOW ?_MD5_HH?BYTE+0FH
0E1E 120000      E     LCALL   ?C?LSTPDATA
0E21 7800        R     MOV     R0,#LOW ?_MD5_HH?BYTE+013H
0E23 120000      E     LCALL   ?C?LSTKPDATA
0E26 00                DB      00H
0E27 00                DB      00H
0E28 00                DB      00H
C51 COMPILER V7.06   MAIN                                                                  12/01/2005 19:02:46 PAGE 82  

0E29 10                DB      010H
0E2A 900000      R     MOV     DPTR,#MD5_T39
0E2D 120000      E     LCALL   ?C?LLDCODE
0E30 7800        R     MOV     R0,#LOW ?_MD5_HH?BYTE+017H
0E32 120000      E     LCALL   ?C?LSTPDATA
0E35 7800        R     MOV     R0,#LOW dd
0E37 E2                MOVX    A,@R0
0E38 FC                MOV     R4,A
0E39 08                INC     R0
0E3A E2                MOVX    A,@R0
0E3B FD                MOV     R5,A
0E3C 08                INC     R0
0E3D E2                MOVX    A,@R0
0E3E FE                MOV     R6,A
0E3F 08                INC     R0
0E40 E2                MOVX    A,@R0
0E41 FF                MOV     R7,A
0E42 7BFE              MOV     R3,#0FEH
0E44 7A00        R     MOV     R2,#HIGH cc
0E46 7900        R     MOV     R1,#LOW cc
0E48 120000      R     LCALL   _MD5_HH
                                           ; SOURCE LINE # 337
0E4B 7800        R     MOV     R0,#LOW dd
0E4D E2                MOVX    A,@R0
0E4E FC                MOV     R4,A
0E4F 08                INC     R0
0E50 E2                MOVX    A,@R0
0E51 FD                MOV     R5,A
0E52 08                INC     R0
0E53 E2                MOVX    A,@R0
0E54 FE                MOV     R6,A
0E55 08                INC     R0
0E56 E2                MOVX    A,@R0
0E57 FF                MOV     R7,A
0E58 7800        R     MOV     R0,#LOW ?_MD5_HH?BYTE+07H
0E5A 120000      E     LCALL   ?C?LSTPDATA
0E5D 7800        R     MOV     R0,#LOW aa
0E5F E2                MOVX    A,@R0
0E60 FC                MOV     R4,A
0E61 08                INC     R0
0E62 E2                MOVX    A,@R0
0E63 FD                MOV     R5,A
0E64 08                INC     R0
0E65 E2                MOVX    A,@R0
0E66 FE                MOV     R6,A
0E67 08                INC     R0
0E68 E2                MOVX    A,@R0
0E69 FF                MOV     R7,A
0E6A 7800        R     MOV     R0,#LOW ?_MD5_HH?BYTE+0BH
0E6C 120000      E     LCALL   ?C?LSTPDATA
0E6F 7800        R     MOV     R0,#LOW pPacket
0E71 E2                MOVX    A,@R0
0E72 FB                MOV     R3,A
0E73 08                INC     R0
0E74 E2                MOVX    A,@R0
0E75 FA                MOV     R2,A
0E76 08                INC     R0
0E77 E2                MOVX    A,@R0
0E78 F9                MOV     R1,A
0E79 900028            MOV     DPTR,#028H
0E7C 120000      E     LCALL   ?C?LLDOPTR
0E7F 7800        R     MOV     R0,#LOW ?_MD5_HH?BYTE+0FH
C51 COMPILER V7.06   MAIN                                                                  12/01/2005 19:02:46 PAGE 83  

0E81 120000      E     LCALL   ?C?LSTPDATA
0E84 7800        R     MOV     R0,#LOW ?_MD5_HH?BYTE+013H
0E86 120000      E     LCALL   ?C?LSTKPDATA
0E89 00                DB      00H
0E8A 00                DB      00H
0E8B 00                DB      00H
0E8C 17                DB      017H
0E8D 900000      R     MOV     DPTR,#MD5_T40
0E90 120000      E     LCALL   ?C?LLDCODE
0E93 7800        R     MOV     R0,#LOW ?_MD5_HH?BYTE+017H
0E95 120000      E     LCALL   ?C?LSTPDATA
0E98 7800        R     MOV     R0,#LOW cc
0E9A E2                MOVX    A,@R0
0E9B FC                MOV     R4,A
0E9C 08                INC     R0
0E9D E2                MOVX    A,@R0
0E9E FD                MOV     R5,A
0E9F 08                INC     R0
0EA0 E2                MOVX    A,@R0
0EA1 FE                MOV     R6,A
0EA2 08                INC     R0
0EA3 E2                MOVX    A,@R0
0EA4 FF                MOV     R7,A
0EA5 7BFE              MOV     R3,#0FEH
0EA7 7A00        R     MOV     R2,#HIGH bb
0EA9 7900        R     MOV     R1,#LOW bb
0EAB 120000      R     LCALL   _MD5_HH
                                           ; SOURCE LINE # 338
0EAE 7800        R     MOV     R0,#LOW cc
0EB0 E2                MOVX    A,@R0
0EB1 FC                MOV     R4,A
0EB2 08                INC     R0
0EB3 E2                MOVX    A,@R0
0EB4 FD                MOV     R5,A
0EB5 08                INC     R0
0EB6 E2                MOVX    A,@R0
0EB7 FE                MOV     R6,A
0EB8 08                INC     R0
0EB9 E2                MOVX    A,@R0
0EBA FF                MOV     R7,A
0EBB 7800        R     MOV     R0,#LOW ?_MD5_HH?BYTE+07H
0EBD 120000      E     LCALL   ?C?LSTPDATA
0EC0 7800        R     MOV     R0,#LOW dd
0EC2 E2                MOVX    A,@R0
0EC3 FC                MOV     R4,A
0EC4 08                INC     R0
0EC5 E2                MOVX    A,@R0
0EC6 FD                MOV     R5,A
0EC7 08                INC     R0
0EC8 E2                MOVX    A,@R0
0EC9 FE                MOV     R6,A
0ECA 08                INC     R0
0ECB E2                MOVX    A,@R0
0ECC FF                MOV     R7,A
0ECD 7800        R     MOV     R0,#LOW ?_MD5_HH?BYTE+0BH
0ECF 120000      E     LCALL   ?C?LSTPDATA
0ED2 7800        R     MOV     R0,#LOW pPacket
0ED4 E2                MOVX    A,@R0
0ED5 FB                MOV     R3,A
0ED6 08                INC     R0
0ED7 E2                MOVX    A,@R0
0ED8 FA                MOV     R2,A
C51 COMPILER V7.06   MAIN                                                                  12/01/2005 19:02:46 PAGE 84  

0ED9 08                INC     R0
0EDA E2                MOVX    A,@R0
0EDB F9                MOV     R1,A
0EDC 900034            MOV     DPTR,#034H
0EDF 120000      E     LCALL   ?C?LLDOPTR
0EE2 7800        R     MOV     R0,#LOW ?_MD5_HH?BYTE+0FH
0EE4 120000      E     LCALL   ?C?LSTPDATA
0EE7 7800        R     MOV     R0,#LOW ?_MD5_HH?BYTE+013H
0EE9 120000      E     LCALL   ?C?LSTKPDATA
0EEC 00                DB      00H
0EED 00                DB      00H
0EEE 00                DB      00H
0EEF 04                DB      04H
0EF0 900000      R     MOV     DPTR,#MD5_T41
0EF3 120000      R     LCALL   L?0049
                                           ; SOURCE LINE # 339
0EF6 7800        R     MOV     R0,#LOW bb
0EF8 E2                MOVX    A,@R0
0EF9 FC                MOV     R4,A
0EFA 08                INC     R0
0EFB E2                MOVX    A,@R0
0EFC FD                MOV     R5,A
0EFD 08                INC     R0
0EFE E2                MOVX    A,@R0
0EFF FE                MOV     R6,A
0F00 08                INC     R0
0F01 E2                MOVX    A,@R0
0F02 FF                MOV     R7,A
0F03 7800        R     MOV     R0,#LOW ?_MD5_HH?BYTE+07H
0F05 120000      E     LCALL   ?C?LSTPDATA
0F08 7800        R     MOV     R0,#LOW cc
0F0A E2                MOVX    A,@R0
0F0B FC                MOV     R4,A
0F0C 08                INC     R0
0F0D E2                MOVX    A,@R0
0F0E FD                MOV     R5,A
0F0F 08                INC     R0
0F10 E2                MOVX    A,@R0
0F11 FE                MOV     R6,A
0F12 08                INC     R0
0F13 E2                MOVX    A,@R0
0F14 FF                MOV     R7,A
0F15 7800        R     MOV     R0,#LOW ?_MD5_HH?BYTE+0BH
0F17 120000      E     LCALL   ?C?LSTPDATA
0F1A 7800        R     MOV     R0,#LOW pPacket
0F1C E2                MOVX    A,@R0
0F1D FB                MOV     R3,A
0F1E 08                INC     R0
0F1F E2                MOVX    A,@R0
0F20 FA                MOV     R2,A
0F21 08                INC     R0
0F22 E2                MOVX    A,@R0
0F23 F9                MOV     R1,A
0F24 120000      E     LCALL   ?C?LLDPTR
0F27 7800        R     MOV     R0,#LOW ?_MD5_HH?BYTE+0FH
0F29 120000      E     LCALL   ?C?LSTPDATA
0F2C 7800        R     MOV     R0,#LOW ?_MD5_HH?BYTE+013H
0F2E 120000      E     LCALL   ?C?LSTKPDATA
0F31 00                DB      00H
0F32 00                DB      00H
0F33 00                DB      00H
0F34 0B                DB      0BH
C51 COMPILER V7.06   MAIN                                                                  12/01/2005 19:02:46 PAGE 85  

0F35 900000      R     MOV     DPTR,#MD5_T42
0F38 120000      E     LCALL   ?C?LLDCODE
0F3B 7800        R     MOV     R0,#LOW ?_MD5_HH?BYTE+017H
0F3D 120000      E     LCALL   ?C?LSTPDATA
0F40 7800        R     MOV     R0,#LOW aa
0F42 E2                MOVX    A,@R0
0F43 FC                MOV     R4,A
0F44 08                INC     R0
0F45 E2                MOVX    A,@R0
0F46 FD                MOV     R5,A
0F47 08                INC     R0
0F48 E2                MOVX    A,@R0
0F49 FE                MOV     R6,A
0F4A 08                INC     R0
0F4B E2                MOVX    A,@R0
0F4C FF                MOV     R7,A
0F4D 7BFE              MOV     R3,#0FEH
0F4F 7A00        R     MOV     R2,#HIGH dd
0F51 7900        R     MOV     R1,#LOW dd
0F53 120000      R     LCALL   _MD5_HH
                                           ; SOURCE LINE # 340
0F56 7800        R     MOV     R0,#LOW aa
0F58 E2                MOVX    A,@R0
0F59 FC                MOV     R4,A
0F5A 08                INC     R0
0F5B E2                MOVX    A,@R0
0F5C FD                MOV     R5,A
0F5D 08                INC     R0
0F5E E2                MOVX    A,@R0
0F5F FE                MOV     R6,A
0F60 08                INC     R0
0F61 E2                MOVX    A,@R0
0F62 FF                MOV     R7,A
0F63 7800        R     MOV     R0,#LOW ?_MD5_HH?BYTE+07H
0F65 120000      E     LCALL   ?C?LSTPDATA
0F68 7800        R     MOV     R0,#LOW bb
0F6A E2                MOVX    A,@R0
0F6B FC                MOV     R4,A
0F6C 08                INC     R0
0F6D E2                MOVX    A,@R0
0F6E FD                MOV     R5,A
0F6F 08                INC     R0
0F70 E2                MOVX    A,@R0
0F71 FE                MOV     R6,A
0F72 08                INC     R0
0F73 E2                MOVX    A,@R0
0F74 FF                MOV     R7,A
0F75 7800        R     MOV     R0,#LOW ?_MD5_HH?BYTE+0BH
0F77 120000      E     LCALL   ?C?LSTPDATA
0F7A 7800        R     MOV     R0,#LOW pPacket
0F7C E2                MOVX    A,@R0
0F7D FB                MOV     R3,A
0F7E 08                INC     R0
0F7F E2                MOVX    A,@R0
0F80 FA                MOV     R2,A
0F81 08                INC     R0
0F82 E2                MOVX    A,@R0
0F83 F9                MOV     R1,A
0F84 90000C            MOV     DPTR,#0CH
0F87 120000      E     LCALL   ?C?LLDOPTR
0F8A 7800        R     MOV     R0,#LOW ?_MD5_HH?BYTE+0FH
0F8C 120000      E     LCALL   ?C?LSTPDATA
C51 COMPILER V7.06   MAIN                                                                  12/01/2005 19:02:46 PAGE 86  

0F8F 7800        R     MOV     R0,#LOW ?_MD5_HH?BYTE+013H
0F91 120000      E     LCALL   ?C?LSTKPDATA
0F94 00                DB      00H
0F95 00                DB      00H
0F96 00                DB      00H
0F97 10                DB      010H
0F98 900000      R     MOV     DPTR,#MD5_T43
0F9B 120000      E     LCALL   ?C?LLDCODE
0F9E 7800        R     MOV     R0,#LOW ?_MD5_HH?BYTE+017H
0FA0 120000      E     LCALL   ?C?LSTPDATA
0FA3 7800        R     MOV     R0,#LOW dd
0FA5 E2                MOVX    A,@R0
0FA6 FC                MOV     R4,A
0FA7 08                INC     R0
0FA8 E2                MOVX    A,@R0
0FA9 FD                MOV     R5,A
0FAA 08                INC     R0
0FAB E2                MOVX    A,@R0
0FAC FE                MOV     R6,A
0FAD 08                INC     R0
0FAE E2                MOVX    A,@R0
0FAF FF                MOV     R7,A
0FB0 7BFE              MOV     R3,#0FEH
0FB2 7A00        R     MOV     R2,#HIGH cc
0FB4 7900        R     MOV     R1,#LOW cc
0FB6 120000      R     LCALL   _MD5_HH
                                           ; SOURCE LINE # 341
0FB9 7800        R     MOV     R0,#LOW dd
0FBB E2                MOVX    A,@R0
0FBC FC                MOV     R4,A
0FBD 08                INC     R0
0FBE E2                MOVX    A,@R0
0FBF FD                MOV     R5,A
0FC0 08                INC     R0
0FC1 E2                MOVX    A,@R0
0FC2 FE                MOV     R6,A
0FC3 08                INC     R0
0FC4 E2                MOVX    A,@R0
0FC5 FF                MOV     R7,A
0FC6 7800        R     MOV     R0,#LOW ?_MD5_HH?BYTE+07H
0FC8 120000      E     LCALL   ?C?LSTPDATA
0FCB 7800        R     MOV     R0,#LOW aa
0FCD E2                MOVX    A,@R0
0FCE FC                MOV     R4,A
0FCF 08                INC     R0
0FD0 E2                MOVX    A,@R0
0FD1 FD                MOV     R5,A
0FD2 08                INC     R0
0FD3 E2                MOVX    A,@R0
0FD4 FE                MOV     R6,A
0FD5 08                INC     R0
0FD6 E2                MOVX    A,@R0
0FD7 FF                MOV     R7,A
0FD8 7800        R     MOV     R0,#LOW ?_MD5_HH?BYTE+0BH
0FDA 120000      E     LCALL   ?C?LSTPDATA
0FDD 7800        R     MOV     R0,#LOW pPacket
0FDF E2                MOVX    A,@R0
0FE0 FB                MOV     R3,A
0FE1 08                INC     R0
0FE2 E2                MOVX    A,@R0
0FE3 FA                MOV     R2,A
0FE4 08                INC     R0
C51 COMPILER V7.06   MAIN                                                                  12/01/2005 19:02:46 PAGE 87  

0FE5 E2                MOVX    A,@R0
0FE6 F9                MOV     R1,A
0FE7 900018            MOV     DPTR,#018H
0FEA 120000      E     LCALL   ?C?LLDOPTR
0FED 7800        R     MOV     R0,#LOW ?_MD5_HH?BYTE+0FH
0FEF 120000      E     LCALL   ?C?LSTPDATA
0FF2 7800        R     MOV     R0,#LOW ?_MD5_HH?BYTE+013H
0FF4 120000      E     LCALL   ?C?LSTKPDATA
0FF7 00                DB      00H
0FF8 00                DB      00H
0FF9 00                DB      00H
0FFA 17                DB      017H
0FFB 900000      R     MOV     DPTR,#MD5_T44
0FFE 120000      E     LCALL   ?C?LLDCODE
1001 7800        R     MOV     R0,#LOW ?_MD5_HH?BYTE+017H
1003 120000      E     LCALL   ?C?LSTPDATA
1006 7800        R     MOV     R0,#LOW cc
1008 E2                MOVX    A,@R0
1009 FC                MOV     R4,A
100A 08                INC     R0
100B E2                MOVX    A,@R0
100C FD                MOV     R5,A
100D 08                INC     R0
100E E2                MOVX    A,@R0
100F FE                MOV     R6,A
1010 08                INC     R0
1011 E2                MOVX    A,@R0
1012 FF                MOV     R7,A
1013 7BFE              MOV     R3,#0FEH
1015 7A00        R     MOV     R2,#HIGH bb
1017 7900        R     MOV     R1,#LOW bb
1019 120000      R     LCALL   _MD5_HH
                                           ; SOURCE LINE # 342
101C 7800        R     MOV     R0,#LOW cc
101E E2                MOVX    A,@R0
101F FC                MOV     R4,A
1020 08                INC     R0
1021 E2                MOVX    A,@R0
1022 FD                MOV     R5,A
1023 08                INC     R0
1024 E2                MOVX    A,@R0
1025 FE                MOV     R6,A
1026 08                INC     R0
1027 E2                MOVX    A,@R0
1028 FF                MOV     R7,A
1029 7800        R     MOV     R0,#LOW ?_MD5_HH?BYTE+07H
102B 120000      E     LCALL   ?C?LSTPDATA
102E 7800        R     MOV     R0,#LOW dd
1030 E2                MOVX    A,@R0
1031 FC                MOV     R4,A
1032 08                INC     R0
1033 E2                MOVX    A,@R0
1034 FD                MOV     R5,A
1035 08                INC     R0
1036 E2                MOVX    A,@R0
1037 FE                MOV     R6,A
1038 08                INC     R0
1039 E2                MOVX    A,@R0
103A FF                MOV     R7,A
103B 7800        R     MOV     R0,#LOW ?_MD5_HH?BYTE+0BH
103D 120000      E     LCALL   ?C?LSTPDATA
1040 7800        R     MOV     R0,#LOW pPacket
C51 COMPILER V7.06   MAIN                                                                  12/01/2005 19:02:46 PAGE 88  

1042 E2                MOVX    A,@R0
1043 FB                MOV     R3,A
1044 08                INC     R0
1045 E2                MOVX    A,@R0
1046 FA                MOV     R2,A
1047 08                INC     R0
1048 E2                MOVX    A,@R0
1049 F9                MOV     R1,A
104A 900024            MOV     DPTR,#024H
104D 120000      E     LCALL   ?C?LLDOPTR
1050 7800        R     MOV     R0,#LOW ?_MD5_HH?BYTE+0FH
1052 120000      E     LCALL   ?C?LSTPDATA
1055 7800        R     MOV     R0,#LOW ?_MD5_HH?BYTE+013H
1057 120000      E     LCALL   ?C?LSTKPDATA
105A 00                DB      00H
105B 00                DB      00H
105C 00                DB      00H
105D 04                DB      04H
105E 900000      R     MOV     DPTR,#MD5_T45
1061 120000      R     LCALL   L?0049
                                           ; SOURCE LINE # 343
1064 7800        R     MOV     R0,#LOW bb
1066 E2                MOVX    A,@R0
1067 FC                MOV     R4,A
1068 08                INC     R0
1069 E2                MOVX    A,@R0
106A FD                MOV     R5,A
106B 08                INC     R0
106C E2                MOVX    A,@R0
106D FE                MOV     R6,A
106E 08                INC     R0
106F E2                MOVX    A,@R0
1070 FF                MOV     R7,A
1071 7800        R     MOV     R0,#LOW ?_MD5_HH?BYTE+07H
1073 120000      E     LCALL   ?C?LSTPDATA
1076 7800        R     MOV     R0,#LOW cc
1078 E2                MOVX    A,@R0
1079 FC                MOV     R4,A
107A 08                INC     R0
107B E2                MOVX    A,@R0
107C FD                MOV     R5,A
107D 08                INC     R0
107E E2                MOVX    A,@R0
107F FE                MOV     R6,A
1080 08                INC     R0
1081 E2                MOVX    A,@R0
1082 FF                MOV     R7,A
1083 7800        R     MOV     R0,#LOW ?_MD5_HH?BYTE+0BH
1085 120000      E     LCALL   ?C?LSTPDATA
1088 7800        R     MOV     R0,#LOW pPacket
108A E2                MOVX    A,@R0
108B FB                MOV     R3,A
108C 08                INC     R0
108D E2                MOVX    A,@R0
108E FA                MOV     R2,A
108F 08                INC     R0
1090 E2                MOVX    A,@R0
1091 F9                MOV     R1,A
1092 900030            MOV     DPTR,#030H
1095 120000      E     LCALL   ?C?LLDOPTR
1098 7800        R     MOV     R0,#LOW ?_MD5_HH?BYTE+0FH
109A 120000      E     LCALL   ?C?LSTPDATA
C51 COMPILER V7.06   MAIN                                                                  12/01/2005 19:02:46 PAGE 89  

109D 7800        R     MOV     R0,#LOW ?_MD5_HH?BYTE+013H
109F 120000      E     LCALL   ?C?LSTKPDATA
10A2 00                DB      00H
10A3 00                DB      00H
10A4 00                DB      00H
10A5 0B                DB      0BH
10A6 900000      R     MOV     DPTR,#MD5_T46
10A9 120000      E     LCALL   ?C?LLDCODE
10AC 7800        R     MOV     R0,#LOW ?_MD5_HH?BYTE+017H
10AE 120000      E     LCALL   ?C?LSTPDATA
10B1 7800        R     MOV     R0,#LOW aa
10B3 E2                MOVX    A,@R0
10B4 FC                MOV     R4,A
10B5 08                INC     R0
10B6 E2                MOVX    A,@R0
10B7 FD                MOV     R5,A
10B8 08                INC     R0
10B9 E2                MOVX    A,@R0
10BA FE                MOV     R6,A
10BB 08                INC     R0
10BC E2                MOVX    A,@R0
10BD FF                MOV     R7,A
10BE 7BFE              MOV     R3,#0FEH
10C0 7A00        R     MOV     R2,#HIGH dd
10C2 7900        R     MOV     R1,#LOW dd
10C4 120000      R     LCALL   _MD5_HH
                                           ; SOURCE LINE # 344
10C7 7800        R     MOV     R0,#LOW aa
10C9 E2                MOVX    A,@R0
10CA FC                MOV     R4,A
10CB 08                INC     R0
10CC E2                MOVX    A,@R0
10CD FD                MOV     R5,A
10CE 08                INC     R0
10CF E2                MOVX    A,@R0
10D0 FE                MOV     R6,A
10D1 08                INC     R0
10D2 E2                MOVX    A,@R0
10D3 FF                MOV     R7,A
10D4 7800        R     MOV     R0,#LOW ?_MD5_HH?BYTE+07H
10D6 120000      E     LCALL   ?C?LSTPDATA
10D9 7800        R     MOV     R0,#LOW bb
10DB E2                MOVX    A,@R0
10DC FC                MOV     R4,A
10DD 08                INC     R0
10DE E2                MOVX    A,@R0
10DF FD                MOV     R5,A
10E0 08                INC     R0
10E1 E2                MOVX    A,@R0
10E2 FE                MOV     R6,A
10E3 08                INC     R0
10E4 E2                MOVX    A,@R0
10E5 FF                MOV     R7,A
10E6 7800        R     MOV     R0,#LOW ?_MD5_HH?BYTE+0BH
10E8 120000      E     LCALL   ?C?LSTPDATA
10EB 7800        R     MOV     R0,#LOW pPacket
10ED E2                MOVX    A,@R0
10EE FB                MOV     R3,A
10EF 08                INC     R0
10F0 E2                MOVX    A,@R0
10F1 FA                MOV     R2,A
10F2 08                INC     R0
C51 COMPILER V7.06   MAIN                                                                  12/01/2005 19:02:46 PAGE 90  

10F3 E2                MOVX    A,@R0
10F4 F9                MOV     R1,A
10F5 90003C            MOV     DPTR,#03CH
10F8 120000      E     LCALL   ?C?LLDOPTR
10FB 7800        R     MOV     R0,#LOW ?_MD5_HH?BYTE+0FH
10FD 120000      E     LCALL   ?C?LSTPDATA
1100 7800        R     MOV     R0,#LOW ?_MD5_HH?BYTE+013H
1102 120000      E     LCALL   ?C?LSTKPDATA
1105 00                DB      00H
1106 00                DB      00H
1107 00                DB      00H
1108 10                DB      010H
1109 900000      R     MOV     DPTR,#MD5_T47
110C 120000      E     LCALL   ?C?LLDCODE
110F 7800        R     MOV     R0,#LOW ?_MD5_HH?BYTE+017H
1111 120000      E     LCALL   ?C?LSTPDATA
1114 7800        R     MOV     R0,#LOW dd
1116 E2                MOVX    A,@R0
1117 FC                MOV     R4,A
1118 08                INC     R0
1119 E2                MOVX    A,@R0
111A FD                MOV     R5,A
111B 08                INC     R0
111C E2                MOVX    A,@R0
111D FE                MOV     R6,A
111E 08                INC     R0
111F E2                MOVX    A,@R0
1120 FF                MOV     R7,A
1121 7BFE              MOV     R3,#0FEH
1123 7A00        R     MOV     R2,#HIGH cc
1125 7900        R     MOV     R1,#LOW cc
1127 120000      R     LCALL   _MD5_HH
                                           ; SOURCE LINE # 345
112A 7800        R     MOV     R0,#LOW dd
112C E2                MOVX    A,@R0
112D FC                MOV     R4,A
112E 08                INC     R0
112F E2                MOVX    A,@R0
1130 FD                MOV     R5,A
1131 08                INC     R0
1132 E2                MOVX    A,@R0
1133 FE                MOV     R6,A
1134 08                INC     R0
1135 E2                MOVX    A,@R0
1136 FF                MOV     R7,A
1137 7800        R     MOV     R0,#LOW ?_MD5_HH?BYTE+07H
1139 120000      E     LCALL   ?C?LSTPDATA
113C 7800        R     MOV     R0,#LOW aa
113E E2                MOVX    A,@R0
113F FC                MOV     R4,A
1140 08                INC     R0
1141 E2                MOVX    A,@R0
1142 FD                MOV     R5,A
1143 08                INC     R0
1144 E2                MOVX    A,@R0
1145 FE                MOV     R6,A
1146 08                INC     R0
1147 E2                MOVX    A,@R0
1148 FF                MOV     R7,A
1149 7800        R     MOV     R0,#LOW ?_MD5_HH?BYTE+0BH
114B 120000      E     LCALL   ?C?LSTPDATA
114E 7800        R     MOV     R0,#LOW pPacket
C51 COMPILER V7.06   MAIN                                                                  12/01/2005 19:02:46 PAGE 91  

1150 E2                MOVX    A,@R0
1151 FB                MOV     R3,A
1152 08                INC     R0
1153 E2                MOVX    A,@R0
1154 FA                MOV     R2,A
1155 08                INC     R0
1156 E2                MOVX    A,@R0
1157 F9                MOV     R1,A
1158 900008            MOV     DPTR,#08H
115B 120000      E     LCALL   ?C?LLDOPTR
115E 7800        R     MOV     R0,#LOW ?_MD5_HH?BYTE+0FH
1160 120000      E     LCALL   ?C?LSTPDATA
1163 7800        R     MOV     R0,#LOW ?_MD5_HH?BYTE+013H
1165 120000      E     LCALL   ?C?LSTKPDATA
1168 00                DB      00H
1169 00                DB      00H
116A 00                DB      00H
116B 17                DB      017H
116C 900000      R     MOV     DPTR,#MD5_T48
116F 120000      E     LCALL   ?C?LLDCODE
1172 7800        R     MOV     R0,#LOW ?_MD5_HH?BYTE+017H
1174 120000      E     LCALL   ?C?LSTPDATA
1177 7800        R     MOV     R0,#LOW cc
1179 E2                MOVX    A,@R0
117A FC                MOV     R4,A
117B 08                INC     R0
117C E2                MOVX    A,@R0
117D FD                MOV     R5,A
117E 08                INC     R0
117F E2                MOVX    A,@R0
1180 FE                MOV     R6,A
1181 08                INC     R0
1182 E2                MOVX    A,@R0
1183 FF                MOV     R7,A
1184 7BFE              MOV     R3,#0FEH
1186 7A00        R     MOV     R2,#HIGH bb
1188 7900        R     MOV     R1,#LOW bb
118A 120000      R     LCALL   _MD5_HH
                                           ; SOURCE LINE # 347
118D 7800        R     MOV     R0,#LOW cc
118F E2                MOVX    A,@R0
1190 FC                MOV     R4,A
1191 08                INC     R0
1192 E2                MOVX    A,@R0
1193 FD                MOV     R5,A
1194 08                INC     R0
1195 E2                MOVX    A,@R0
1196 FE                MOV     R6,A
1197 08                INC     R0
1198 E2                MOVX    A,@R0
1199 FF                MOV     R7,A
119A 7800        R     MOV     R0,#LOW ?_MD5_II?BYTE+07H
119C 120000      E     LCALL   ?C?LSTPDATA
119F 7800        R     MOV     R0,#LOW dd
11A1 E2                MOVX    A,@R0
11A2 FC                MOV     R4,A
11A3 08                INC     R0
11A4 E2                MOVX    A,@R0
11A5 FD                MOV     R5,A
11A6 08                INC     R0
11A7 E2                MOVX    A,@R0
11A8 FE                MOV     R6,A
C51 COMPILER V7.06   MAIN                                                                  12/01/2005 19:02:46 PAGE 92  

11A9 08                INC     R0
11AA E2                MOVX    A,@R0
11AB FF                MOV     R7,A
11AC 7800        R     MOV     R0,#LOW ?_MD5_II?BYTE+0BH
11AE 120000      E     LCALL   ?C?LSTPDATA
11B1 7800        R     MOV     R0,#LOW pPacket
11B3 E2                MOVX    A,@R0
11B4 FB                MOV     R3,A
11B5 08                INC     R0
11B6 E2                MOVX    A,@R0
11B7 FA                MOV     R2,A
11B8 08                INC     R0
11B9 E2                MOVX    A,@R0
11BA F9                MOV     R1,A
11BB 120000      E     LCALL   ?C?LLDPTR
11BE 7800        R     MOV     R0,#LOW ?_MD5_II?BYTE+0FH
11C0 120000      E     LCALL   ?C?LSTPDATA
11C3 7800        R     MOV     R0,#LOW ?_MD5_II?BYTE+013H
11C5 120000      E     LCALL   ?C?LSTKPDATA
11C8 00                DB      00H
11C9 00                DB      00H
11CA 00                DB      00H
11CB 06                DB      06H
11CC 900000      R     MOV     DPTR,#MD5_T49
11CF 120000      R     LCALL   L?0050
                                           ; SOURCE LINE # 348
11D2 7800        R     MOV     R0,#LOW bb
11D4 E2                MOVX    A,@R0
11D5 FC                MOV     R4,A
11D6 08                INC     R0
11D7 E2                MOVX    A,@R0
11D8 FD                MOV     R5,A
11D9 08                INC     R0
11DA E2                MOVX    A,@R0
11DB FE                MOV     R6,A
11DC 08                INC     R0
11DD E2                MOVX    A,@R0
11DE FF                MOV     R7,A
11DF 7800        R     MOV     R0,#LOW ?_MD5_II?BYTE+07H
11E1 120000      E     LCALL   ?C?LSTPDATA
11E4 7800        R     MOV     R0,#LOW cc
11E6 E2                MOVX    A,@R0
11E7 FC                MOV     R4,A
11E8 08                INC     R0
11E9 E2                MOVX    A,@R0
11EA FD                MOV     R5,A
11EB 08                INC     R0
11EC E2                MOVX    A,@R0
11ED FE                MOV     R6,A
11EE 08                INC     R0
11EF E2                MOVX    A,@R0
11F0 FF                MOV     R7,A
11F1 7800        R     MOV     R0,#LOW ?_MD5_II?BYTE+0BH
11F3 120000      E     LCALL   ?C?LSTPDATA
11F6 7800        R     MOV     R0,#LOW pPacket
11F8 E2                MOVX    A,@R0
11F9 FB                MOV     R3,A
11FA 08                INC     R0
11FB E2                MOVX    A,@R0
11FC FA                MOV     R2,A
11FD 08                INC     R0
11FE E2                MOVX    A,@R0
C51 COMPILER V7.06   MAIN                                                                  12/01/2005 19:02:46 PAGE 93  

11FF F9                MOV     R1,A
1200 90001C            MOV     DPTR,#01CH
1203 120000      E     LCALL   ?C?LLDOPTR
1206 7800        R     MOV     R0,#LOW ?_MD5_II?BYTE+0FH
1208 120000      E     LCALL   ?C?LSTPDATA
120B 7800        R     MOV     R0,#LOW ?_MD5_II?BYTE+013H
120D 120000      E     LCALL   ?C?LSTKPDATA
1210 00                DB      00H
1211 00                DB      00H
1212 00                DB      00H
1213 0A                DB      0AH
1214 900000      R     MOV     DPTR,#MD5_T50
1217 120000      E     LCALL   ?C?LLDCODE
121A 7800        R     MOV     R0,#LOW ?_MD5_II?BYTE+017H
121C 120000      E     LCALL   ?C?LSTPDATA
121F 7800        R     MOV     R0,#LOW aa
1221 E2                MOVX    A,@R0
1222 FC                MOV     R4,A
1223 08                INC     R0
1224 E2                MOVX    A,@R0
1225 FD                MOV     R5,A
1226 08                INC     R0
1227 E2                MOVX    A,@R0
1228 FE                MOV     R6,A
1229 08                INC     R0
122A E2                MOVX    A,@R0
122B FF                MOV     R7,A
122C 7BFE              MOV     R3,#0FEH
122E 7A00        R     MOV     R2,#HIGH dd
1230 7900        R     MOV     R1,#LOW dd
1232 120000      R     LCALL   _MD5_II
                                           ; SOURCE LINE # 349
1235 7800        R     MOV     R0,#LOW aa
1237 E2                MOVX    A,@R0
1238 FC                MOV     R4,A
1239 08                INC     R0
123A E2                MOVX    A,@R0
123B FD                MOV     R5,A
123C 08                INC     R0
123D E2                MOVX    A,@R0
123E FE                MOV     R6,A
123F 08                INC     R0
1240 E2                MOVX    A,@R0
1241 FF                MOV     R7,A
1242 7800        R     MOV     R0,#LOW ?_MD5_II?BYTE+07H
1244 120000      E     LCALL   ?C?LSTPDATA
1247 7800        R     MOV     R0,#LOW bb
1249 E2                MOVX    A,@R0
124A FC                MOV     R4,A
124B 08                INC     R0
124C E2                MOVX    A,@R0
124D FD                MOV     R5,A
124E 08                INC     R0
124F E2                MOVX    A,@R0
1250 FE                MOV     R6,A
1251 08                INC     R0
1252 E2                MOVX    A,@R0
1253 FF                MOV     R7,A
1254 7800        R     MOV     R0,#LOW ?_MD5_II?BYTE+0BH
1256 120000      E     LCALL   ?C?LSTPDATA
1259 7800        R     MOV     R0,#LOW pPacket
125B E2                MOVX    A,@R0
C51 COMPILER V7.06   MAIN                                                                  12/01/2005 19:02:46 PAGE 94  

125C FB                MOV     R3,A
125D 08                INC     R0
125E E2                MOVX    A,@R0
125F FA                MOV     R2,A
1260 08                INC     R0
1261 E2                MOVX    A,@R0
1262 F9                MOV     R1,A
1263 900038            MOV     DPTR,#038H
1266 120000      E     LCALL   ?C?LLDOPTR
1269 7800        R     MOV     R0,#LOW ?_MD5_II?BYTE+0FH
126B 120000      E     LCALL   ?C?LSTPDATA
126E 7800        R     MOV     R0,#LOW ?_MD5_II?BYTE+013H
1270 120000      E     LCALL   ?C?LSTKPDATA
1273 00                DB      00H
1274 00                DB      00H
1275 00                DB      00H
1276 0F                DB      0FH
1277 900000      R     MOV     DPTR,#MD5_T51
127A 120000      E     LCALL   ?C?LLDCODE
127D 7800        R     MOV     R0,#LOW ?_MD5_II?BYTE+017H
127F 120000      E     LCALL   ?C?LSTPDATA
1282 7800        R     MOV     R0,#LOW dd
1284 E2                MOVX    A,@R0
1285 FC                MOV     R4,A
1286 08                INC     R0
1287 E2                MOVX    A,@R0
1288 FD                MOV     R5,A
1289 08                INC     R0
128A E2                MOVX    A,@R0
128B FE                MOV     R6,A
128C 08                INC     R0
128D E2                MOVX    A,@R0
128E FF                MOV     R7,A
128F 7BFE              MOV     R3,#0FEH
1291 7A00        R     MOV     R2,#HIGH cc
1293 7900        R     MOV     R1,#LOW cc
1295 120000      R     LCALL   _MD5_II
                                           ; SOURCE LINE # 350
1298 7800        R     MOV     R0,#LOW dd
129A E2                MOVX    A,@R0
129B FC                MOV     R4,A
129C 08                INC     R0
129D E2                MOVX    A,@R0
129E FD                MOV     R5,A
129F 08                INC     R0
12A0 E2                MOVX    A,@R0
12A1 FE                MOV     R6,A
12A2 08                INC     R0
12A3 E2                MOVX    A,@R0
12A4 FF                MOV     R7,A
12A5 7800        R     MOV     R0,#LOW ?_MD5_II?BYTE+07H
12A7 120000      E     LCALL   ?C?LSTPDATA
12AA 7800        R     MOV     R0,#LOW aa
12AC E2                MOVX    A,@R0
12AD FC                MOV     R4,A
12AE 08                INC     R0
12AF E2                MOVX    A,@R0
12B0 FD                MOV     R5,A
12B1 08                INC     R0
12B2 E2                MOVX    A,@R0
12B3 FE                MOV     R6,A
12B4 08                INC     R0
C51 COMPILER V7.06   MAIN                                                                  12/01/2005 19:02:46 PAGE 95  

12B5 E2                MOVX    A,@R0
12B6 FF                MOV     R7,A
12B7 7800        R     MOV     R0,#LOW ?_MD5_II?BYTE+0BH
12B9 120000      E     LCALL   ?C?LSTPDATA
12BC 7800        R     MOV     R0,#LOW pPacket
12BE E2                MOVX    A,@R0
12BF FB                MOV     R3,A
12C0 08                INC     R0
12C1 E2                MOVX    A,@R0
12C2 FA                MOV     R2,A
12C3 08                INC     R0
12C4 E2                MOVX    A,@R0
12C5 F9                MOV     R1,A
12C6 900014            MOV     DPTR,#014H
12C9 120000      E     LCALL   ?C?LLDOPTR
12CC 7800        R     MOV     R0,#LOW ?_MD5_II?BYTE+0FH
12CE 120000      E     LCALL   ?C?LSTPDATA
12D1 7800        R     MOV     R0,#LOW ?_MD5_II?BYTE+013H
12D3 120000      E     LCALL   ?C?LSTKPDATA
12D6 00                DB      00H
12D7 00                DB      00H
12D8 00                DB      00H
12D9 15                DB      015H
12DA 900000      R     MOV     DPTR,#MD5_T52
12DD 120000      E     LCALL   ?C?LLDCODE
12E0 7800        R     MOV     R0,#LOW ?_MD5_II?BYTE+017H
12E2 120000      E     LCALL   ?C?LSTPDATA
12E5 7800        R     MOV     R0,#LOW cc
12E7 E2                MOVX    A,@R0
12E8 FC                MOV     R4,A
12E9 08                INC     R0
12EA E2                MOVX    A,@R0
12EB FD                MOV     R5,A
12EC 08                INC     R0
12ED E2                MOVX    A,@R0
12EE FE                MOV     R6,A
12EF 08                INC     R0
12F0 E2                MOVX    A,@R0
12F1 FF                MOV     R7,A
12F2 7BFE              MOV     R3,#0FEH
12F4 7A00        R     MOV     R2,#HIGH bb
12F6 7900        R     MOV     R1,#LOW bb
12F8 120000      R     LCALL   _MD5_II
                                           ; SOURCE LINE # 351
12FB 7800        R     MOV     R0,#LOW cc
12FD E2                MOVX    A,@R0
12FE FC                MOV     R4,A
12FF 08                INC     R0
1300 E2                MOVX    A,@R0
1301 FD                MOV     R5,A
1302 08                INC     R0
1303 E2                MOVX    A,@R0
1304 FE                MOV     R6,A
1305 08                INC     R0
1306 E2                MOVX    A,@R0
1307 FF                MOV     R7,A
1308 7800        R     MOV     R0,#LOW ?_MD5_II?BYTE+07H
130A 120000      E     LCALL   ?C?LSTPDATA
130D 7800        R     MOV     R0,#LOW dd
130F E2                MOVX    A,@R0
1310 FC                MOV     R4,A
1311 08                INC     R0
C51 COMPILER V7.06   MAIN                                                                  12/01/2005 19:02:46 PAGE 96  

1312 E2                MOVX    A,@R0
1313 FD                MOV     R5,A
1314 08                INC     R0
1315 E2                MOVX    A,@R0
1316 FE                MOV     R6,A
1317 08                INC     R0
1318 E2                MOVX    A,@R0
1319 FF                MOV     R7,A
131A 7800        R     MOV     R0,#LOW ?_MD5_II?BYTE+0BH
131C 120000      E     LCALL   ?C?LSTPDATA
131F 7800        R     MOV     R0,#LOW pPacket
1321 E2                MOVX    A,@R0
1322 FB                MOV     R3,A
1323 08                INC     R0
1324 E2                MOVX    A,@R0
1325 FA                MOV     R2,A
1326 08                INC     R0
1327 E2                MOVX    A,@R0
1328 F9                MOV     R1,A
1329 900030            MOV     DPTR,#030H
132C 120000      E     LCALL   ?C?LLDOPTR
132F 7800        R     MOV     R0,#LOW ?_MD5_II?BYTE+0FH
1331 120000      E     LCALL   ?C?LSTPDATA
1334 7800        R     MOV     R0,#LOW ?_MD5_II?BYTE+013H
1336 120000      E     LCALL   ?C?LSTKPDATA
1339 00                DB      00H
133A 00                DB      00H
133B 00                DB      00H
133C 06                DB      06H
133D 900000      R     MOV     DPTR,#MD5_T53
1340 120000      R     LCALL   L?0050
                                           ; SOURCE LINE # 352
1343 7800        R     MOV     R0,#LOW bb
1345 E2                MOVX    A,@R0
1346 FC                MOV     R4,A
1347 08                INC     R0
1348 E2                MOVX    A,@R0
1349 FD                MOV     R5,A
134A 08                INC     R0
134B E2                MOVX    A,@R0
134C FE                MOV     R6,A
134D 08                INC     R0
134E E2                MOVX    A,@R0
134F FF                MOV     R7,A
1350 7800        R     MOV     R0,#LOW ?_MD5_II?BYTE+07H
1352 120000      E     LCALL   ?C?LSTPDATA
1355 7800        R     MOV     R0,#LOW cc
1357 E2                MOVX    A,@R0
1358 FC                MOV     R4,A
1359 08                INC     R0
135A E2                MOVX    A,@R0
135B FD                MOV     R5,A
135C 08                INC     R0
135D E2                MOVX    A,@R0
135E FE                MOV     R6,A
135F 08                INC     R0
1360 E2                MOVX    A,@R0
1361 FF                MOV     R7,A
1362 7800        R     MOV     R0,#LOW ?_MD5_II?BYTE+0BH
1364 120000      E     LCALL   ?C?LSTPDATA
1367 7800        R     MOV     R0,#LOW pPacket
1369 E2                MOVX    A,@R0
C51 COMPILER V7.06   MAIN                                                                  12/01/2005 19:02:46 PAGE 97  

136A FB                MOV     R3,A
136B 08                INC     R0
136C E2                MOVX    A,@R0
136D FA                MOV     R2,A
136E 08                INC     R0
136F E2                MOVX    A,@R0
1370 F9                MOV     R1,A
1371 90000C            MOV     DPTR,#0CH
1374 120000      E     LCALL   ?C?LLDOPTR
1377 7800        R     MOV     R0,#LOW ?_MD5_II?BYTE+0FH
1379 120000      E     LCALL   ?C?LSTPDATA
137C 7800        R     MOV     R0,#LOW ?_MD5_II?BYTE+013H
137E 120000      E     LCALL   ?C?LSTKPDATA
1381 00                DB      00H
1382 00                DB      00H
1383 00                DB      00H
1384 0A                DB      0AH
1385 900000      R     MOV     DPTR,#MD5_T54
1388 120000      E     LCALL   ?C?LLDCODE
138B 7800        R     MOV     R0,#LOW ?_MD5_II?BYTE+017H
138D 120000      E     LCALL   ?C?LSTPDATA
1390 7800        R     MOV     R0,#LOW aa
1392 E2                MOVX    A,@R0
1393 FC                MOV     R4,A
1394 08                INC     R0
1395 E2                MOVX    A,@R0
1396 FD                MOV     R5,A
1397 08                INC     R0
1398 E2                MOVX    A,@R0
1399 FE                MOV     R6,A
139A 08                INC     R0
139B E2                MOVX    A,@R0
139C FF                MOV     R7,A
139D 7BFE              MOV     R3,#0FEH
139F 7A00        R     MOV     R2,#HIGH dd
13A1 7900        R     MOV     R1,#LOW dd
13A3 120000      R     LCALL   _MD5_II
                                           ; SOURCE LINE # 353
13A6 7800        R     MOV     R0,#LOW aa
13A8 E2                MOVX    A,@R0
13A9 FC                MOV     R4,A
13AA 08                INC     R0
13AB E2                MOVX    A,@R0
13AC FD                MOV     R5,A
13AD 08                INC     R0
13AE E2                MOVX    A,@R0
13AF FE                MOV     R6,A
13B0 08                INC     R0
13B1 E2                MOVX    A,@R0
13B2 FF                MOV     R7,A
13B3 7800        R     MOV     R0,#LOW ?_MD5_II?BYTE+07H
13B5 120000      E     LCALL   ?C?LSTPDATA
13B8 7800        R     MOV     R0,#LOW bb
13BA E2                MOVX    A,@R0
13BB FC                MOV     R4,A
13BC 08                INC     R0
13BD E2                MOVX    A,@R0
13BE FD                MOV     R5,A
13BF 08                INC     R0
13C0 E2                MOVX    A,@R0
13C1 FE                MOV     R6,A
13C2 08                INC     R0
C51 COMPILER V7.06   MAIN                                                                  12/01/2005 19:02:46 PAGE 98  

13C3 E2                MOVX    A,@R0
13C4 FF                MOV     R7,A
13C5 7800        R     MOV     R0,#LOW ?_MD5_II?BYTE+0BH
13C7 120000      E     LCALL   ?C?LSTPDATA
13CA 7800        R     MOV     R0,#LOW pPacket
13CC E2                MOVX    A,@R0
13CD FB                MOV     R3,A
13CE 08                INC     R0
13CF E2                MOVX    A,@R0
13D0 FA                MOV     R2,A
13D1 08                INC     R0
13D2 E2                MOVX    A,@R0
13D3 F9                MOV     R1,A
13D4 900028            MOV     DPTR,#028H
13D7 120000      E     LCALL   ?C?LLDOPTR
13DA 7800        R     MOV     R0,#LOW ?_MD5_II?BYTE+0FH
13DC 120000      E     LCALL   ?C?LSTPDATA
13DF 7800        R     MOV     R0,#LOW ?_MD5_II?BYTE+013H
13E1 120000      E     LCALL   ?C?LSTKPDATA
13E4 00                DB      00H
13E5 00                DB      00H
13E6 00                DB      00H
13E7 0F                DB      0FH
13E8 900000      R     MOV     DPTR,#MD5_T55
13EB 120000      E     LCALL   ?C?LLDCODE
13EE 7800        R     MOV     R0,#LOW ?_MD5_II?BYTE+017H
13F0 120000      E     LCALL   ?C?LSTPDATA
13F3 7800        R     MOV     R0,#LOW dd
13F5 E2                MOVX    A,@R0
13F6 FC                MOV     R4,A
13F7 08                INC     R0
13F8 E2                MOVX    A,@R0
13F9 FD                MOV     R5,A
13FA 08                INC     R0
13FB E2                MOVX    A,@R0
13FC FE                MOV     R6,A
13FD 08                INC     R0
13FE E2                MOVX    A,@R0
13FF FF                MOV     R7,A
1400 7BFE              MOV     R3,#0FEH
1402 7A00        R     MOV     R2,#HIGH cc
1404 7900        R     MOV     R1,#LOW cc
1406 120000      R     LCALL   _MD5_II
                                           ; SOURCE LINE # 354
1409 7800        R     MOV     R0,#LOW dd
140B E2                MOVX    A,@R0
140C FC                MOV     R4,A
140D 08                INC     R0
140E E2                MOVX    A,@R0
140F FD                MOV     R5,A
1410 08                INC     R0
1411 E2                MOVX    A,@R0
1412 FE                MOV     R6,A
1413 08                INC     R0
1414 E2                MOVX    A,@R0
1415 FF                MOV     R7,A
1416 7800        R     MOV     R0,#LOW ?_MD5_II?BYTE+07H
1418 120000      E     LCALL   ?C?LSTPDATA
141B 7800        R     MOV     R0,#LOW aa
141D E2                MOVX    A,@R0
141E FC                MOV     R4,A
141F 08                INC     R0
C51 COMPILER V7.06   MAIN                                                                  12/01/2005 19:02:46 PAGE 99  

1420 E2                MOVX    A,@R0
1421 FD                MOV     R5,A
1422 08                INC     R0
1423 E2                MOVX    A,@R0
1424 FE                MOV     R6,A
1425 08                INC     R0
1426 E2                MOVX    A,@R0
1427 FF                MOV     R7,A
1428 7800        R     MOV     R0,#LOW ?_MD5_II?BYTE+0BH
142A 120000      E     LCALL   ?C?LSTPDATA
142D 7800        R     MOV     R0,#LOW pPacket
142F E2                MOVX    A,@R0
1430 FB                MOV     R3,A
1431 08                INC     R0
1432 E2                MOVX    A,@R0
1433 FA                MOV     R2,A
1434 08                INC     R0
1435 E2                MOVX    A,@R0
1436 F9                MOV     R1,A
1437 900004            MOV     DPTR,#04H
143A 120000      E     LCALL   ?C?LLDOPTR
143D 7800        R     MOV     R0,#LOW ?_MD5_II?BYTE+0FH
143F 120000      E     LCALL   ?C?LSTPDATA
1442 7800        R     MOV     R0,#LOW ?_MD5_II?BYTE+013H
1444 120000      E     LCALL   ?C?LSTKPDATA
1447 00                DB      00H
1448 00                DB      00H
1449 00                DB      00H
144A 15                DB      015H
144B 900000      R     MOV     DPTR,#MD5_T56
144E 120000      E     LCALL   ?C?LLDCODE
1451 7800        R     MOV     R0,#LOW ?_MD5_II?BYTE+017H
1453 120000      E     LCALL   ?C?LSTPDATA
1456 7800        R     MOV     R0,#LOW cc
1458 E2                MOVX    A,@R0
1459 FC                MOV     R4,A
145A 08                INC     R0
145B E2                MOVX    A,@R0
145C FD                MOV     R5,A
145D 08                INC     R0
145E E2                MOVX    A,@R0
145F FE                MOV     R6,A
1460 08                INC     R0
1461 E2                MOVX    A,@R0
1462 FF                MOV     R7,A
1463 7BFE              MOV     R3,#0FEH
1465 7A00        R     MOV     R2,#HIGH bb
1467 7900        R     MOV     R1,#LOW bb
1469 120000      R     LCALL   _MD5_II
                                           ; SOURCE LINE # 355
146C 7800        R     MOV     R0,#LOW cc
146E E2                MOVX    A,@R0
146F FC                MOV     R4,A
1470 08                INC     R0
1471 E2                MOVX    A,@R0
1472 FD                MOV     R5,A
1473 08                INC     R0
1474 E2                MOVX    A,@R0
1475 FE                MOV     R6,A
1476 08                INC     R0
1477 E2                MOVX    A,@R0
1478 FF                MOV     R7,A
C51 COMPILER V7.06   MAIN                                                                  12/01/2005 19:02:46 PAGE 100 

1479 7800        R     MOV     R0,#LOW ?_MD5_II?BYTE+07H
147B 120000      E     LCALL   ?C?LSTPDATA
147E 7800        R     MOV     R0,#LOW dd
1480 E2                MOVX    A,@R0
1481 FC                MOV     R4,A
1482 08                INC     R0
1483 E2                MOVX    A,@R0
1484 FD                MOV     R5,A
1485 08                INC     R0
1486 E2                MOVX    A,@R0
1487 FE                MOV     R6,A
1488 08                INC     R0
1489 E2                MOVX    A,@R0
148A FF                MOV     R7,A
148B 7800        R     MOV     R0,#LOW ?_MD5_II?BYTE+0BH
148D 120000      E     LCALL   ?C?LSTPDATA
1490 7800        R     MOV     R0,#LOW pPacket
1492 E2                MOVX    A,@R0
1493 FB                MOV     R3,A
1494 08                INC     R0
1495 E2                MOVX    A,@R0
1496 FA                MOV     R2,A
1497 08                INC     R0
1498 E2                MOVX    A,@R0
1499 F9                MOV     R1,A
149A 900020            MOV     DPTR,#020H
149D 120000      E     LCALL   ?C?LLDOPTR
14A0 7800        R     MOV     R0,#LOW ?_MD5_II?BYTE+0FH
14A2 120000      E     LCALL   ?C?LSTPDATA
14A5 7800        R     MOV     R0,#LOW ?_MD5_II?BYTE+013H
14A7 120000      E     LCALL   ?C?LSTKPDATA
14AA 00                DB      00H
14AB 00                DB      00H
14AC 00                DB      00H
14AD 06                DB      06H
14AE 900000      R     MOV     DPTR,#MD5_T57
14B1 120000      R     LCALL   L?0051
                                           ; SOURCE LINE # 356
14B4 7800        R     MOV     R0,#LOW bb
14B6 E2                MOVX    A,@R0
14B7 FC                MOV     R4,A
14B8 08                INC     R0
14B9 E2                MOVX    A,@R0
14BA FD                MOV     R5,A
14BB 08                INC     R0
14BC E2                MOVX    A,@R0
14BD FE                MOV     R6,A
14BE 08                INC     R0
14BF E2                MOVX    A,@R0
14C0 FF                MOV     R7,A
14C1 7800        R     MOV     R0,#LOW ?_MD5_II?BYTE+07H
14C3 120000      E     LCALL   ?C?LSTPDATA
14C6 7800        R     MOV     R0,#LOW cc
14C8 E2                MOVX    A,@R0
14C9 FC                MOV     R4,A
14CA 08                INC     R0
14CB E2                MOVX    A,@R0
14CC FD                MOV     R5,A
14CD 08                INC     R0
14CE E2                MOVX    A,@R0
14CF FE                MOV     R6,A
14D0 08                INC     R0
C51 COMPILER V7.06   MAIN                                                                  12/01/2005 19:02:46 PAGE 101 

14D1 E2                MOVX    A,@R0
14D2 FF                MOV     R7,A
14D3 7800        R     MOV     R0,#LOW ?_MD5_II?BYTE+0BH
14D5 120000      E     LCALL   ?C?LSTPDATA
14D8 7800        R     MOV     R0,#LOW pPacket
14DA E2                MOVX    A,@R0
14DB FB                MOV     R3,A
14DC 08                INC     R0
14DD E2                MOVX    A,@R0
14DE FA                MOV     R2,A
14DF 08                INC     R0
14E0 E2                MOVX    A,@R0
14E1 F9                MOV     R1,A
14E2 90003C            MOV     DPTR,#03CH
14E5 120000      E     LCALL   ?C?LLDOPTR
14E8 7800        R     MOV     R0,#LOW ?_MD5_II?BYTE+0FH
14EA 120000      E     LCALL   ?C?LSTPDATA
14ED 7800        R     MOV     R0,#LOW ?_MD5_II?BYTE+013H
14EF 120000      E     LCALL   ?C?LSTKPDATA
14F2 00                DB      00H
14F3 00                DB      00H
14F4 00                DB      00H
14F5 0A                DB      0AH
14F6 900000      R     MOV     DPTR,#MD5_T58
14F9 120000      E     LCALL   ?C?LLDCODE
14FC 7800        R     MOV     R0,#LOW ?_MD5_II?BYTE+017H
14FE 120000      E     LCALL   ?C?LSTPDATA
1501 7800        R     MOV     R0,#LOW aa
1503 E2                MOVX    A,@R0
1504 FC                MOV     R4,A
1505 08                INC     R0
1506 E2                MOVX    A,@R0
1507 FD                MOV     R5,A
1508 08                INC     R0
1509 E2                MOVX    A,@R0
150A FE                MOV     R6,A
150B 08                INC     R0
150C E2                MOVX    A,@R0
150D FF                MOV     R7,A
150E 7BFE              MOV     R3,#0FEH
1510 7A00        R     MOV     R2,#HIGH dd
1512 7900        R     MOV     R1,#LOW dd
1514 120000      R     LCALL   _MD5_II
                                           ; SOURCE LINE # 357
1517 7800        R     MOV     R0,#LOW aa
1519 E2                MOVX    A,@R0
151A FC                MOV     R4,A
151B 08                INC     R0
151C E2                MOVX    A,@R0
151D FD                MOV     R5,A
151E 08                INC     R0
151F E2                MOVX    A,@R0
1520 FE                MOV     R6,A
1521 08                INC     R0
1522 E2                MOVX    A,@R0
1523 FF                MOV     R7,A
1524 7800        R     MOV     R0,#LOW ?_MD5_II?BYTE+07H
1526 120000      E     LCALL   ?C?LSTPDATA
1529 7800        R     MOV     R0,#LOW bb
152B E2                MOVX    A,@R0
152C FC                MOV     R4,A
152D 08                INC     R0
C51 COMPILER V7.06   MAIN                                                                  12/01/2005 19:02:46 PAGE 102 

152E E2                MOVX    A,@R0
152F FD                MOV     R5,A
1530 08                INC     R0
1531 E2                MOVX    A,@R0
1532 FE                MOV     R6,A
1533 08                INC     R0
1534 E2                MOVX    A,@R0
1535 FF                MOV     R7,A
1536 7800        R     MOV     R0,#LOW ?_MD5_II?BYTE+0BH
1538 120000      E     LCALL   ?C?LSTPDATA
153B 7800        R     MOV     R0,#LOW pPacket
153D E2                MOVX    A,@R0
153E FB                MOV     R3,A
153F 08                INC     R0
1540 E2                MOVX    A,@R0
1541 FA                MOV     R2,A
1542 08                INC     R0
1543 E2                MOVX    A,@R0
1544 F9                MOV     R1,A
1545 900018            MOV     DPTR,#018H
1548 120000      E     LCALL   ?C?LLDOPTR
154B 7800        R     MOV     R0,#LOW ?_MD5_II?BYTE+0FH
154D 120000      E     LCALL   ?C?LSTPDATA
1550 7800        R     MOV     R0,#LOW ?_MD5_II?BYTE+013H
1552 120000      E     LCALL   ?C?LSTKPDATA
1555 00                DB      00H
1556 00                DB      00H
1557 00                DB      00H
1558 0F                DB      0FH
1559 900000      R     MOV     DPTR,#MD5_T59
155C 120000      E     LCALL   ?C?LLDCODE
155F 7800        R     MOV     R0,#LOW ?_MD5_II?BYTE+017H
1561 120000      E     LCALL   ?C?LSTPDATA
1564 7800        R     MOV     R0,#LOW dd
1566 E2                MOVX    A,@R0
1567 FC                MOV     R4,A
1568 08                INC     R0
1569 E2                MOVX    A,@R0
156A FD                MOV     R5,A
156B 08                INC     R0
156C E2                MOVX    A,@R0
156D FE                MOV     R6,A
156E 08                INC     R0
156F E2                MOVX    A,@R0
1570 FF                MOV     R7,A
1571 7BFE              MOV     R3,#0FEH
1573 7A00        R     MOV     R2,#HIGH cc
1575 7900        R     MOV     R1,#LOW cc
1577 120000      R     LCALL   _MD5_II
                                           ; SOURCE LINE # 358
157A 7800        R     MOV     R0,#LOW dd
157C E2                MOVX    A,@R0
157D FC                MOV     R4,A
157E 08                INC     R0
157F E2                MOVX    A,@R0
1580 FD                MOV     R5,A
1581 08                INC     R0
1582 E2                MOVX    A,@R0
1583 FE                MOV     R6,A
1584 08                INC     R0
1585 E2                MOVX    A,@R0
1586 FF                MOV     R7,A
C51 COMPILER V7.06   MAIN                                                                  12/01/2005 19:02:46 PAGE 103 

1587 7800        R     MOV     R0,#LOW ?_MD5_II?BYTE+07H
1589 120000      E     LCALL   ?C?LSTPDATA
158C 7800        R     MOV     R0,#LOW aa
158E E2                MOVX    A,@R0
158F FC                MOV     R4,A
1590 08                INC     R0
1591 E2                MOVX    A,@R0
1592 FD                MOV     R5,A
1593 08                INC     R0
1594 E2                MOVX    A,@R0
1595 FE                MOV     R6,A
1596 08                INC     R0
1597 E2                MOVX    A,@R0
1598 FF                MOV     R7,A
1599 7800        R     MOV     R0,#LOW ?_MD5_II?BYTE+0BH
159B 120000      E     LCALL   ?C?LSTPDATA
159E 7800        R     MOV     R0,#LOW pPacket
15A0 E2                MOVX    A,@R0
15A1 FB                MOV     R3,A
15A2 08                INC     R0
15A3 E2                MOVX    A,@R0
15A4 FA                MOV     R2,A
15A5 08                INC     R0
15A6 E2                MOVX    A,@R0
15A7 F9                MOV     R1,A
15A8 900034            MOV     DPTR,#034H
15AB 120000      E     LCALL   ?C?LLDOPTR
15AE 7800        R     MOV     R0,#LOW ?_MD5_II?BYTE+0FH
15B0 120000      E     LCALL   ?C?LSTPDATA
15B3 7800        R     MOV     R0,#LOW ?_MD5_II?BYTE+013H
15B5 120000      E     LCALL   ?C?LSTKPDATA
15B8 00                DB      00H
15B9 00                DB      00H
15BA 00                DB      00H
15BB 15                DB      015H
15BC 900000      R     MOV     DPTR,#MD5_T60
15BF 120000      E     LCALL   ?C?LLDCODE
15C2 7800        R     MOV     R0,#LOW ?_MD5_II?BYTE+017H
15C4 120000      E     LCALL   ?C?LSTPDATA
15C7 7800        R     MOV     R0,#LOW cc
15C9 E2                MOVX    A,@R0
15CA FC                MOV     R4,A
15CB 08                INC     R0
15CC E2                MOVX    A,@R0
15CD FD                MOV     R5,A
15CE 08                INC     R0
15CF E2                MOVX    A,@R0
15D0 FE                MOV     R6,A
15D1 08                INC     R0
15D2 E2                MOVX    A,@R0
15D3 FF                MOV     R7,A
15D4 7BFE              MOV     R3,#0FEH
15D6 7A00        R     MOV     R2,#HIGH bb
15D8 7900        R     MOV     R1,#LOW bb
15DA 120000      R     LCALL   _MD5_II
                                           ; SOURCE LINE # 359
15DD 7800        R     MOV     R0,#LOW cc
15DF E2                MOVX    A,@R0
15E0 FC                MOV     R4,A
15E1 08                INC     R0
15E2 E2                MOVX    A,@R0
15E3 FD                MOV     R5,A
C51 COMPILER V7.06   MAIN                                                                  12/01/2005 19:02:46 PAGE 104 

15E4 08                INC     R0
15E5 E2                MOVX    A,@R0
15E6 FE                MOV     R6,A
15E7 08                INC     R0
15E8 E2                MOVX    A,@R0
15E9 FF                MOV     R7,A
15EA 7800        R     MOV     R0,#LOW ?_MD5_II?BYTE+07H
15EC 120000      E     LCALL   ?C?LSTPDATA
15EF 7800        R     MOV     R0,#LOW dd
15F1 E2                MOVX    A,@R0
15F2 FC                MOV     R4,A
15F3 08                INC     R0
15F4 E2                MOVX    A,@R0
15F5 FD                MOV     R5,A
15F6 08                INC     R0
15F7 E2                MOVX    A,@R0
15F8 FE                MOV     R6,A
15F9 08                INC     R0
15FA E2                MOVX    A,@R0
15FB FF                MOV     R7,A
15FC 7800        R     MOV     R0,#LOW ?_MD5_II?BYTE+0BH
15FE 120000      E     LCALL   ?C?LSTPDATA
1601 7800        R     MOV     R0,#LOW pPacket
1603 E2                MOVX    A,@R0
1604 FB                MOV     R3,A
1605 08                INC     R0
1606 E2                MOVX    A,@R0
1607 FA                MOV     R2,A
1608 08                INC     R0
1609 E2                MOVX    A,@R0
160A F9                MOV     R1,A
160B 900010            MOV     DPTR,#010H
160E 120000      E     LCALL   ?C?LLDOPTR
1611 7800        R     MOV     R0,#LOW ?_MD5_II?BYTE+0FH
1613 120000      E     LCALL   ?C?LSTPDATA
1616 7800        R     MOV     R0,#LOW ?_MD5_II?BYTE+013H
1618 120000      E     LCALL   ?C?LSTKPDATA
161B 00                DB      00H
161C 00                DB      00H
161D 00                DB      00H
161E 06                DB      06H
161F 900000      R     MOV     DPTR,#MD5_T61
1622 120000      R     LCALL   L?0051
                                           ; SOURCE LINE # 360
1625 7800        R     MOV     R0,#LOW bb
1627 E2                MOVX    A,@R0
1628 FC                MOV     R4,A
1629 08                INC     R0
162A E2                MOVX    A,@R0
162B FD                MOV     R5,A
162C 08                INC     R0
162D E2                MOVX    A,@R0
162E FE                MOV     R6,A
162F 08                INC     R0
1630 E2                MOVX    A,@R0
1631 FF                MOV     R7,A
1632 7800        R     MOV     R0,#LOW ?_MD5_II?BYTE+07H
1634 120000      E     LCALL   ?C?LSTPDATA
1637 7800        R     MOV     R0,#LOW cc
1639 E2                MOVX    A,@R0
163A FC                MOV     R4,A
163B 08                INC     R0
C51 COMPILER V7.06   MAIN                                                                  12/01/2005 19:02:46 PAGE 105 

163C E2                MOVX    A,@R0
163D FD                MOV     R5,A
163E 08                INC     R0
163F E2                MOVX    A,@R0
1640 FE                MOV     R6,A
1641 08                INC     R0
1642 E2                MOVX    A,@R0
1643 FF                MOV     R7,A
1644 7800        R     MOV     R0,#LOW ?_MD5_II?BYTE+0BH
1646 120000      E     LCALL   ?C?LSTPDATA
1649 7800        R     MOV     R0,#LOW pPacket
164B E2                MOVX    A,@R0
164C FB                MOV     R3,A
164D 08                INC     R0
164E E2                MOVX    A,@R0
164F FA                MOV     R2,A
1650 08                INC     R0
1651 E2                MOVX    A,@R0
1652 F9                MOV     R1,A
1653 90002C            MOV     DPTR,#02CH
1656 120000      E     LCALL   ?C?LLDOPTR
1659 7800        R     MOV     R0,#LOW ?_MD5_II?BYTE+0FH
165B 120000      E     LCALL   ?C?LSTPDATA
165E 7800        R     MOV     R0,#LOW ?_MD5_II?BYTE+013H
1660 120000      E     LCALL   ?C?LSTKPDATA
1663 00                DB      00H
1664 00                DB      00H
1665 00                DB      00H
1666 0A                DB      0AH
1667 900000      R     MOV     DPTR,#MD5_T62
166A 120000      E     LCALL   ?C?LLDCODE
166D 7800        R     MOV     R0,#LOW ?_MD5_II?BYTE+017H
166F 120000      E     LCALL   ?C?LSTPDATA
1672 7800        R     MOV     R0,#LOW aa
1674 E2                MOVX    A,@R0
1675 FC                MOV     R4,A
1676 08                INC     R0
1677 E2                MOVX    A,@R0
1678 FD                MOV     R5,A
1679 08                INC     R0
167A E2                MOVX    A,@R0
167B FE                MOV     R6,A
167C 08                INC     R0
167D E2                MOVX    A,@R0
167E FF                MOV     R7,A
167F 7BFE              MOV     R3,#0FEH
1681 7A00        R     MOV     R2,#HIGH dd
1683 7900        R     MOV     R1,#LOW dd
1685 120000      R     LCALL   _MD5_II
                                           ; SOURCE LINE # 361
1688 7800        R     MOV     R0,#LOW aa
168A E2                MOVX    A,@R0
168B FC                MOV     R4,A
168C 08                INC     R0
168D E2                MOVX    A,@R0
168E FD                MOV     R5,A
168F 08                INC     R0
1690 E2                MOVX    A,@R0
1691 FE                MOV     R6,A
1692 08                INC     R0
1693 E2                MOVX    A,@R0
1694 FF                MOV     R7,A
C51 COMPILER V7.06   MAIN                                                                  12/01/2005 19:02:46 PAGE 106 

1695 7800        R     MOV     R0,#LOW ?_MD5_II?BYTE+07H
1697 120000      E     LCALL   ?C?LSTPDATA
169A 7800        R     MOV     R0,#LOW bb
169C E2                MOVX    A,@R0
169D FC                MOV     R4,A
169E 08                INC     R0
169F E2                MOVX    A,@R0
16A0 FD                MOV     R5,A
16A1 08                INC     R0
16A2 E2                MOVX    A,@R0
16A3 FE                MOV     R6,A
16A4 08                INC     R0
16A5 E2                MOVX    A,@R0
16A6 FF                MOV     R7,A
16A7 7800        R     MOV     R0,#LOW ?_MD5_II?BYTE+0BH
16A9 120000      E     LCALL   ?C?LSTPDATA
16AC 7800        R     MOV     R0,#LOW pPacket
16AE E2                MOVX    A,@R0
16AF FB                MOV     R3,A
16B0 08                INC     R0
16B1 E2                MOVX    A,@R0
16B2 FA                MOV     R2,A
16B3 08                INC     R0
16B4 E2                MOVX    A,@R0
16B5 F9                MOV     R1,A
16B6 900008            MOV     DPTR,#08H
16B9 120000      E     LCALL   ?C?LLDOPTR
16BC 7800        R     MOV     R0,#LOW ?_MD5_II?BYTE+0FH
16BE 120000      E     LCALL   ?C?LSTPDATA
16C1 7800        R     MOV     R0,#LOW ?_MD5_II?BYTE+013H
16C3 120000      E     LCALL   ?C?LSTKPDATA
16C6 00                DB      00H
16C7 00                DB      00H
16C8 00                DB      00H
16C9 0F                DB      0FH
16CA 900000      R     MOV     DPTR,#MD5_T63
16CD 120000      E     LCALL   ?C?LLDCODE
16D0 7800        R     MOV     R0,#LOW ?_MD5_II?BYTE+017H
16D2 120000      E     LCALL   ?C?LSTPDATA
16D5 7800        R     MOV     R0,#LOW dd
16D7 E2                MOVX    A,@R0
16D8 FC                MOV     R4,A
16D9 08                INC     R0
16DA E2                MOVX    A,@R0
16DB FD                MOV     R5,A
16DC 08                INC     R0
16DD E2                MOVX    A,@R0
16DE FE                MOV     R6,A
16DF 08                INC     R0
16E0 E2                MOVX    A,@R0
16E1 FF                MOV     R7,A
16E2 7BFE              MOV     R3,#0FEH
16E4 7A00        R     MOV     R2,#HIGH cc
16E6 7900        R     MOV     R1,#LOW cc
16E8 120000      R     LCALL   _MD5_II
                                           ; SOURCE LINE # 362
16EB 7800        R     MOV     R0,#LOW dd
16ED E2                MOVX    A,@R0
16EE FC                MOV     R4,A
16EF 08                INC     R0
16F0 E2                MOVX    A,@R0
16F1 FD                MOV     R5,A
C51 COMPILER V7.06   MAIN                                                                  12/01/2005 19:02:46 PAGE 107 

16F2 08                INC     R0
16F3 E2                MOVX    A,@R0
16F4 FE                MOV     R6,A
16F5 08                INC     R0
16F6 E2                MOVX    A,@R0
16F7 FF                MOV     R7,A
16F8 7800        R     MOV     R0,#LOW ?_MD5_II?BYTE+07H
16FA 120000      E     LCALL   ?C?LSTPDATA
16FD 7800        R     MOV     R0,#LOW aa
16FF E2                MOVX    A,@R0
1700 FC                MOV     R4,A
1701 08                INC     R0
1702 E2                MOVX    A,@R0
1703 FD                MOV     R5,A
1704 08                INC     R0
1705 E2                MOVX    A,@R0
1706 FE                MOV     R6,A
1707 08                INC     R0
1708 E2                MOVX    A,@R0
1709 FF                MOV     R7,A
170A 7800        R     MOV     R0,#LOW ?_MD5_II?BYTE+0BH
170C 120000      E     LCALL   ?C?LSTPDATA
170F 7800        R     MOV     R0,#LOW pPacket
1711 E2                MOVX    A,@R0
1712 FB                MOV     R3,A
1713 08                INC     R0
1714 E2                MOVX    A,@R0
1715 FA                MOV     R2,A
1716 08                INC     R0
1717 E2                MOVX    A,@R0
1718 F9                MOV     R1,A
1719 900024            MOV     DPTR,#024H
171C 120000      E     LCALL   ?C?LLDOPTR
171F 7800        R     MOV     R0,#LOW ?_MD5_II?BYTE+0FH
1721 120000      E     LCALL   ?C?LSTPDATA
1724 7800        R     MOV     R0,#LOW ?_MD5_II?BYTE+013H
1726 120000      E     LCALL   ?C?LSTKPDATA
1729 00                DB      00H
172A 00                DB      00H
172B 00                DB      00H
172C 15                DB      015H
172D 900000      R     MOV     DPTR,#MD5_T64
1730 120000      E     LCALL   ?C?LLDCODE
1733 7800        R     MOV     R0,#LOW ?_MD5_II?BYTE+017H
1735 120000      E     LCALL   ?C?LSTPDATA
1738 7800        R     MOV     R0,#LOW cc
173A E2                MOVX    A,@R0
173B FC                MOV     R4,A
173C 08                INC     R0
173D E2                MOVX    A,@R0
173E FD                MOV     R5,A
173F 08                INC     R0
1740 E2                MOVX    A,@R0
1741 FE                MOV     R6,A
1742 08                INC     R0
1743 E2                MOVX    A,@R0
1744 FF                MOV     R7,A
1745 7BFE              MOV     R3,#0FEH
1747 7A00        R     MOV     R2,#HIGH bb
1749 7900        R     MOV     R1,#LOW bb
174B 120000      R     LCALL   _MD5_II
                                           ; SOURCE LINE # 365
C51 COMPILER V7.06   MAIN                                                                  12/01/2005 19:02:46 PAGE 108 

174E 7800        R     MOV     R0,#LOW md5CheckSum
1750 E2                MOVX    A,@R0
1751 FB                MOV     R3,A
1752 08                INC     R0
1753 E2                MOVX    A,@R0
1754 FA                MOV     R2,A
1755 08                INC     R0
1756 E2                MOVX    A,@R0
1757 F9                MOV     R1,A
1758 C003              PUSH    AR3
175A C002              PUSH    AR2
175C C001              PUSH    AR1
175E 120000      E     LCALL   ?C?LLDPTR
1761 7800        R     MOV     R0,#LOW aa
1763 E2                MOVX    A,@R0
1764 FB                MOV     R3,A
1765 08                INC     R0
1766 E2                MOVX    A,@R0
1767 F9                MOV     R1,A
1768 08                INC     R0
1769 E2                MOVX    A,@R0
176A FA                MOV     R2,A
176B 08                INC     R0
176C E2                MOVX    A,@R0
176D CB                XCH     A,R3
176E F8                MOV     R0,A
176F EB                MOV     A,R3
1770 2F                ADD     A,R7
1771 FF                MOV     R7,A
1772 EA                MOV     A,R2
1773 3E                ADDC    A,R6
1774 FE                MOV     R6,A
1775 E9                MOV     A,R1
1776 3D                ADDC    A,R5
1777 FD                MOV     R5,A
1778 E8                MOV     A,R0
1779 3C                ADDC    A,R4
177A FC                MOV     R4,A
177B D001              POP     AR1
177D D002              POP     AR2
177F D003              POP     AR3
1781 120000      E     LCALL   ?C?LSTPTR
                                           ; SOURCE LINE # 366
1784 7800        R     MOV     R0,#LOW md5CheckSum
1786 E2                MOVX    A,@R0
1787 FB                MOV     R3,A
1788 08                INC     R0
1789 E2                MOVX    A,@R0
178A FA                MOV     R2,A
178B 08                INC     R0
178C E2                MOVX    A,@R0
178D 2404              ADD     A,#04H
178F F9                MOV     R1,A
1790 E4                CLR     A
1791 3A                ADDC    A,R2
1792 FA                MOV     R2,A
1793 C003              PUSH    AR3
1795 C002              PUSH    AR2
1797 C001              PUSH    AR1
1799 120000      E     LCALL   ?C?LLDPTR
179C 7800        R     MOV     R0,#LOW bb
179E E2                MOVX    A,@R0
C51 COMPILER V7.06   MAIN                                                                  12/01/2005 19:02:46 PAGE 109 

179F FB                MOV     R3,A
17A0 08                INC     R0
17A1 E2                MOVX    A,@R0
17A2 F9                MOV     R1,A
17A3 08                INC     R0
17A4 E2                MOVX    A,@R0
17A5 FA                MOV     R2,A
17A6 08                INC     R0
17A7 E2                MOVX    A,@R0
17A8 CB                XCH     A,R3
17A9 F8                MOV     R0,A
17AA EB                MOV     A,R3
17AB 2F                ADD     A,R7
17AC FF                MOV     R7,A
17AD EA                MOV     A,R2
17AE 3E                ADDC    A,R6
17AF FE                MOV     R6,A
17B0 E9                MOV     A,R1
17B1 3D                ADDC    A,R5
17B2 FD                MOV     R5,A
17B3 E8                MOV     A,R0
17B4 3C                ADDC    A,R4
17B5 FC                MOV     R4,A
17B6 D001              POP     AR1
17B8 D002              POP     AR2
17BA D003              POP     AR3
17BC 120000      E     LCALL   ?C?LSTPTR
                                           ; SOURCE LINE # 367
17BF 7800        R     MOV     R0,#LOW md5CheckSum
17C1 E2                MOVX    A,@R0
17C2 FB                MOV     R3,A
17C3 08                INC     R0
17C4 E2                MOVX    A,@R0
17C5 FA                MOV     R2,A
17C6 08                INC     R0
17C7 E2                MOVX    A,@R0
17C8 2408              ADD     A,#08H
17CA F9                MOV     R1,A
17CB E4                CLR     A
17CC 3A                ADDC    A,R2
17CD FA                MOV     R2,A
17CE C003              PUSH    AR3
17D0 C002              PUSH    AR2
17D2 C001              PUSH    AR1
17D4 120000      E     LCALL   ?C?LLDPTR
17D7 7800        R     MOV     R0,#LOW cc
17D9 E2                MOVX    A,@R0
17DA FB                MOV     R3,A
17DB 08                INC     R0
17DC E2                MOVX    A,@R0
17DD F9                MOV     R1,A
17DE 08                INC     R0
17DF E2                MOVX    A,@R0
17E0 FA                MOV     R2,A
17E1 08                INC     R0
17E2 E2                MOVX    A,@R0
17E3 CB                XCH     A,R3
17E4 F8                MOV     R0,A
17E5 EB                MOV     A,R3
17E6 2F                ADD     A,R7
17E7 FF                MOV     R7,A
17E8 EA                MOV     A,R2
C51 COMPILER V7.06   MAIN                                                                  12/01/2005 19:02:46 PAGE 110 

17E9 3E                ADDC    A,R6
17EA FE                MOV     R6,A
17EB E9                MOV     A,R1
17EC 3D                ADDC    A,R5
17ED FD                MOV     R5,A
17EE E8                MOV     A,R0
17EF 3C                ADDC    A,R4
17F0 FC                MOV     R4,A
17F1 D001              POP     AR1
17F3 D002              POP     AR2
17F5 D003              POP     AR3
17F7 120000      E     LCALL   ?C?LSTPTR
                                           ; SOURCE LINE # 368
17FA 7800        R     MOV     R0,#LOW md5CheckSum
17FC E2                MOVX    A,@R0
17FD FB                MOV     R3,A
17FE 08                INC     R0
17FF E2                MOVX    A,@R0
1800 FA                MOV     R2,A
1801 08                INC     R0
1802 E2                MOVX    A,@R0
1803 240C              ADD     A,#0CH
1805 F9                MOV     R1,A
1806 E4                CLR     A
1807 3A                ADDC    A,R2
1808 FA                MOV     R2,A
1809 C003              PUSH    AR3
180B C002              PUSH    AR2
180D C001              PUSH    AR1
180F 120000      E     LCALL   ?C?LLDPTR
1812 7800        R     MOV     R0,#LOW dd
1814 E2                MOVX    A,@R0
1815 FB                MOV     R3,A
1816 08                INC     R0
1817 E2                MOVX    A,@R0
1818 F9                MOV     R1,A
1819 08                INC     R0
181A E2                MOVX    A,@R0
181B FA                MOV     R2,A
181C 08                INC     R0
181D E2                MOVX    A,@R0
181E CB                XCH     A,R3
181F F8                MOV     R0,A
1820 EB                MOV     A,R3
1821 2F                ADD     A,R7
1822 FF                MOV     R7,A
1823 EA                MOV     A,R2
1824 3E                ADDC    A,R6
1825 FE                MOV     R6,A
1826 E9                MOV     A,R1
1827 3D                ADDC    A,R5
1828 FD                MOV     R5,A
1829 E8                MOV     A,R0
182A 3C                ADDC    A,R4
182B FC                MOV     R4,A
182C D001              POP     AR1
182E D002              POP     AR2
1830 D003              POP     AR3
1832 020000      E     LJMP    ?C?LSTPTR
             ; FUNCTION _MD5_Packet (END)

             ; FUNCTION _MD5_Block (BEGIN)
C51 COMPILER V7.06   MAIN                                                                  12/01/2005 19:02:46 PAGE 111 

                                           ; SOURCE LINE # 371
0000 7800        R     MOV     R0,#LOW md5CheckSum
0002 EB                MOV     A,R3
0003 F2                MOVX    @R0,A
0004 08                INC     R0
0005 EA                MOV     A,R2
0006 F2                MOVX    @R0,A
0007 08                INC     R0
0008 E9                MOV     A,R1
0009 F2                MOVX    @R0,A
                                           ; SOURCE LINE # 372
                                           ; SOURCE LINE # 373
000A 08                INC     R0
000B E2                MOVX    A,@R0
000C F9                MOV     R1,A
000D 08                INC     R0
000E E2                MOVX    A,@R0
000F FA                MOV     R2,A
0010 08                INC     R0
0011 E2                MOVX    A,@R0
0012 7800        R     MOV     R0,#LOW pSrc
0014 C9                XCH     A,R1
0015 F2                MOVX    @R0,A
0016 08                INC     R0
0017 EA                MOV     A,R2
0018 F2                MOVX    @R0,A
0019 08                INC     R0
001A E9                MOV     A,R1
001B F2                MOVX    @R0,A
                                           ; SOURCE LINE # 375
001C 7800        R     MOV     R0,#LOW bufferSize
001E E2                MOVX    A,@R0
001F FE                MOV     R6,A
0020 08                INC     R0
0021 E2                MOVX    A,@R0
0022 7806              MOV     R0,#06H
0024         ?C0038:
0024 CE                XCH     A,R6
0025 C3                CLR     C
0026 13                RRC     A
0027 CE                XCH     A,R6
0028 13                RRC     A
0029 D8F9              DJNZ    R0,?C0038
002B 7900        R     MOV     R1,#LOW count+01H
002D F3                MOVX    @R1,A
002E EE                MOV     A,R6
002F 19                DEC     R1
0030 F3                MOVX    @R1,A
                                           ; SOURCE LINE # 377
0031 E4                CLR     A
0032 7800        R     MOV     R0,#LOW i
0034 F2                MOVX    @R0,A
0035 08                INC     R0
0036 F2                MOVX    @R0,A
0037         ?C0028:
0037 7800        R     MOV     R0,#LOW count
0039 E2                MOVX    A,@R0
003A FE                MOV     R6,A
003B 08                INC     R0
003C E2                MOVX    A,@R0
003D FF                MOV     R7,A
003E C3                CLR     C
C51 COMPILER V7.06   MAIN                                                                  12/01/2005 19:02:46 PAGE 112 

003F 7800        R     MOV     R0,#LOW i+01H
0041 E2                MOVX    A,@R0
0042 9F                SUBB    A,R7
0043 18                DEC     R0
0044 E2                MOVX    A,@R0
0045 9E                SUBB    A,R6
0046 5045              JNC     ?C0031
                                           ; SOURCE LINE # 378
                                           ; SOURCE LINE # 379
0048 7800        R     MOV     R0,#LOW packet
004A 7C00        R     MOV     R4,#HIGH packet
004C 7DFE              MOV     R5,#0FEH
004E C000              PUSH    AR0
0050 7800        R     MOV     R0,#LOW pSrc
0052 E2                MOVX    A,@R0
0053 FB                MOV     R3,A
0054 08                INC     R0
0055 E2                MOVX    A,@R0
0056 FA                MOV     R2,A
0057 08                INC     R0
0058 E2                MOVX    A,@R0
0059 F9                MOV     R1,A
005A D000              POP     AR0
005C 7E00              MOV     R6,#00H
005E 7F40              MOV     R7,#040H
0060 120000      E     LCALL   ?C?COPY
                                           ; SOURCE LINE # 380
0063 7800        R     MOV     R0,#LOW ?_MD5_Packet?BYTE+03H
0065 74FE              MOV     A,#0FEH
0067 F2                MOVX    @R0,A
0068 08                INC     R0
0069 7400        R     MOV     A,#HIGH packet
006B F2                MOVX    @R0,A
006C 08                INC     R0
006D 7400        R     MOV     A,#LOW packet
006F F2                MOVX    @R0,A
0070 7800        R     MOV     R0,#LOW md5CheckSum
0072 120000      R     LCALL   L?0055
                                           ; SOURCE LINE # 381
0075 7800        R     MOV     R0,#LOW pSrc+02H
0077 E2                MOVX    A,@R0
0078 2440              ADD     A,#040H
007A F2                MOVX    @R0,A
007B 18                DEC     R0
007C E2                MOVX    A,@R0
007D 3400              ADDC    A,#00H
007F F2                MOVX    @R0,A
                                           ; SOURCE LINE # 382
0080 7800        R     MOV     R0,#LOW i+01H
0082 E2                MOVX    A,@R0
0083 2401              ADD     A,#01H
0085 F2                MOVX    @R0,A
0086 18                DEC     R0
0087 E2                MOVX    A,@R0
0088 3400              ADDC    A,#00H
008A F2                MOVX    @R0,A
008B 80AA              SJMP    ?C0028
                                           ; SOURCE LINE # 383
008D         ?C0031:
008D 22                RET     
             ; FUNCTION _MD5_Block (END)

C51 COMPILER V7.06   MAIN                                                                  12/01/2005 19:02:46 PAGE 113 

             ; FUNCTION _MD5_RemainderBlock (BEGIN)
                                           ; SOURCE LINE # 385
0000 7800        R     MOV     R0,#LOW md5CheckSum
0002 EB                MOV     A,R3
0003 F2                MOVX    @R0,A
0004 08                INC     R0
0005 EA                MOV     A,R2
0006 F2                MOVX    @R0,A
0007 08                INC     R0
0008 E9                MOV     A,R1
0009 F2                MOVX    @R0,A
                                           ; SOURCE LINE # 388
                                           ; SOURCE LINE # 391
000A 7800        R     MOV     R0,#LOW bufferSize
000C E2                MOVX    A,@R0
000D FE                MOV     R6,A
000E 08                INC     R0
000F E2                MOVX    A,@R0
0010 FF                MOV     R7,A
0011 E4                CLR     A
0012 7800        R     MOV     R0,#LOW remainder
0014 F2                MOVX    @R0,A
0015 EF                MOV     A,R7
0016 543F              ANL     A,#03FH
0018 08                INC     R0
0019 F2                MOVX    @R0,A
                                           ; SOURCE LINE # 392
001A 18                DEC     R0
001B E2                MOVX    A,@R0
001C FC                MOV     R4,A
001D 08                INC     R0
001E E2                MOVX    A,@R0
001F FD                MOV     R5,A
0020 7800        R     MOV     R0,#LOW pBuffer
0022 E2                MOVX    A,@R0
0023 FB                MOV     R3,A
0024 08                INC     R0
0025 E2                MOVX    A,@R0
0026 FA                MOV     R2,A
0027 08                INC     R0
0028 E2                MOVX    A,@R0
0029 2F                ADD     A,R7
002A F9                MOV     R1,A
002B EA                MOV     A,R2
002C 3E                ADDC    A,R6
002D FA                MOV     R2,A
002E C3                CLR     C
002F E9                MOV     A,R1
0030 9D                SUBB    A,R5
0031 F9                MOV     R1,A
0032 EA                MOV     A,R2
0033 9C                SUBB    A,R4
0034 FA                MOV     R2,A
0035 7800        R     MOV     R0,#LOW pSrc
0037 EB                MOV     A,R3
0038 F2                MOVX    @R0,A
0039 08                INC     R0
003A EA                MOV     A,R2
003B F2                MOVX    @R0,A
003C 08                INC     R0
003D E9                MOV     A,R1
003E F2                MOVX    @R0,A
C51 COMPILER V7.06   MAIN                                                                  12/01/2005 19:02:46 PAGE 114 

                                           ; SOURCE LINE # 394
003F C3                CLR     C
0040 ED                MOV     A,R5
0041 9438              SUBB    A,#038H
0043 EC                MOV     A,R4
0044 9400              SUBB    A,#00H
0046 5073              JNC     ?C0032
                                           ; SOURCE LINE # 395
                                           ; SOURCE LINE # 396
0048 7800        R     MOV     R0,#LOW remainder
004A E2                MOVX    A,@R0
004B FE                MOV     R6,A
004C 08                INC     R0
004D E2                MOVX    A,@R0
004E FF                MOV     R7,A
004F 7800        R     MOV     R0,#LOW packet
0051 7C00        R     MOV     R4,#HIGH packet
0053 7DFE              MOV     R5,#0FEH
0055 C000              PUSH    AR0
0057 7800        R     MOV     R0,#LOW pSrc
0059 E2                MOVX    A,@R0
005A FB                MOV     R3,A
005B 08                INC     R0
005C E2                MOVX    A,@R0
005D FA                MOV     R2,A
005E 08                INC     R0
005F E2                MOVX    A,@R0
0060 F9                MOV     R1,A
0061 D000              POP     AR0
0063 120000      E     LCALL   ?C?COPY
                                           ; SOURCE LINE # 397
0066 7800        R     MOV     R0,#LOW remainder+01H
0068 E2                MOVX    A,@R0
0069 FF                MOV     R7,A
006A 2400        R     ADD     A,#LOW packet
006C F8                MOV     R0,A
006D 7480              MOV     A,#080H
006F F2                MOVX    @R0,A
                                           ; SOURCE LINE # 398
0070 7800        R     MOV     R0,#LOW remainder
0072 E2                MOVX    A,@R0
0073 FC                MOV     R4,A
0074 08                INC     R0
0075 E2                MOVX    A,@R0
0076 FD                MOV     R5,A
0077 C3                CLR     C
0078 7437              MOV     A,#037H
007A 9D                SUBB    A,R5
007B F582              MOV     DPL,A
007D E4                CLR     A
007E 9C                SUBB    A,R4
007F F583              MOV     DPH,A
0081 7400        R     MOV     A,#LOW packet+01H
0083 2F                ADD     A,R7
0084 F9                MOV     R1,A
0085 E4                CLR     A
0086 FA                MOV     R2,A
0087 7BFE              MOV     R3,#0FEH
0089 FD                MOV     R5,A
008A AE83              MOV     R6,DPH
008C AF82              MOV     R7,DPL
008E 120000      E     LCALL   ?C?MEMSET
C51 COMPILER V7.06   MAIN                                                                  12/01/2005 19:02:46 PAGE 115 

                                           ; SOURCE LINE # 399
0091 7800        R     MOV     R0,#LOW bufferSize
0093 E2                MOVX    A,@R0
0094 FA                MOV     R2,A
0095 08                INC     R0
0096 E2                MOVX    A,@R0
0097 FB                MOV     R3,A
0098 AE02              MOV     R6,AR2
009A 781D              MOV     R0,#01DH
009C         ?C0039:
009C CE                XCH     A,R6
009D C3                CLR     C
009E 13                RRC     A
009F CE                XCH     A,R6
00A0 13                RRC     A
00A1 D8F9              DJNZ    R0,?C0039
00A3 FF                MOV     R7,A
00A4 E4                CLR     A
00A5 FC                MOV     R4,A
00A6 FD                MOV     R5,A
00A7 7800        R     MOV     R0,#LOW packet+03CH
00A9 120000      E     LCALL   ?C?LSTPDATA
                                           ; SOURCE LINE # 400
00AC EB                MOV     A,R3
00AD AE02              MOV     R6,AR2
00AF 7803              MOV     R0,#03H
00B1         ?C0040:
00B1 C3                CLR     C
00B2 33                RLC     A
00B3 CE                XCH     A,R6
00B4 33                RLC     A
00B5 CE                XCH     A,R6
00B6 D8F9              DJNZ    R0,?C0040
                                           ; SOURCE LINE # 401
                                           ; SOURCE LINE # 402
00B8 020000      R     LJMP    ?C0043
00BB         ?C0032:
                                           ; SOURCE LINE # 404
                                           ; SOURCE LINE # 405
00BB 7800        R     MOV     R0,#LOW remainder
00BD E2                MOVX    A,@R0
00BE FE                MOV     R6,A
00BF 08                INC     R0
00C0 E2                MOVX    A,@R0
00C1 FF                MOV     R7,A
00C2 7800        R     MOV     R0,#LOW packet
00C4 7C00        R     MOV     R4,#HIGH packet
00C6 7DFE              MOV     R5,#0FEH
00C8 C000              PUSH    AR0
00CA 7800        R     MOV     R0,#LOW pSrc
00CC E2                MOVX    A,@R0
00CD FB                MOV     R3,A
00CE 08                INC     R0
00CF E2                MOVX    A,@R0
00D0 FA                MOV     R2,A
00D1 08                INC     R0
00D2 E2                MOVX    A,@R0
00D3 F9                MOV     R1,A
00D4 D000              POP     AR0
00D6 120000      E     LCALL   ?C?COPY
                                           ; SOURCE LINE # 406
00D9 7800        R     MOV     R0,#LOW remainder+01H
C51 COMPILER V7.06   MAIN                                                                  12/01/2005 19:02:46 PAGE 116 

00DB E2                MOVX    A,@R0
00DC FF                MOV     R7,A
00DD 2400        R     ADD     A,#LOW packet
00DF F8                MOV     R0,A
00E0 7480              MOV     A,#080H
00E2 F2                MOVX    @R0,A
                                           ; SOURCE LINE # 407
00E3 7800        R     MOV     R0,#LOW remainder
00E5 E2                MOVX    A,@R0
00E6 FC                MOV     R4,A
00E7 08                INC     R0
00E8 E2                MOVX    A,@R0
00E9 FD                MOV     R5,A
00EA C3                CLR     C
00EB 743F              MOV     A,#03FH
00ED 9D                SUBB    A,R5
00EE F582              MOV     DPL,A
00F0 E4                CLR     A
00F1 9C                SUBB    A,R4
00F2 F583              MOV     DPH,A
00F4 7400        R     MOV     A,#LOW packet+01H
00F6 2F                ADD     A,R7
00F7 F9                MOV     R1,A
00F8 E4                CLR     A
00F9 FA                MOV     R2,A
00FA 7BFE              MOV     R3,#0FEH
00FC FD                MOV     R5,A
00FD AE83              MOV     R6,DPH
00FF AF82              MOV     R7,DPL
0101 120000      E     LCALL   ?C?MEMSET
                                           ; SOURCE LINE # 408
0104 120000      R     LCALL   L?0054
                                           ; SOURCE LINE # 409
0107 7E00              MOV     R6,#00H
0109 7F38              MOV     R7,#038H
010B 7D00              MOV     R5,#00H
010D 7BFE              MOV     R3,#0FEH
010F 7A00        R     MOV     R2,#HIGH packet
0111 7900        R     MOV     R1,#LOW packet
0113 120000      E     LCALL   ?C?MEMSET
                                           ; SOURCE LINE # 410
0116 7800        R     MOV     R0,#LOW bufferSize
0118 E2                MOVX    A,@R0
0119 FA                MOV     R2,A
011A 08                INC     R0
011B E2                MOVX    A,@R0
011C FB                MOV     R3,A
011D AE02              MOV     R6,AR2
011F 781D              MOV     R0,#01DH
0121         ?C0041:
0121 CE                XCH     A,R6
0122 C3                CLR     C
0123 13                RRC     A
0124 CE                XCH     A,R6
0125 13                RRC     A
0126 D8F9              DJNZ    R0,?C0041
0128 FF                MOV     R7,A
0129 E4                CLR     A
012A FC                MOV     R4,A
012B FD                MOV     R5,A
012C 7800        R     MOV     R0,#LOW packet+03CH
012E 120000      E     LCALL   ?C?LSTPDATA
C51 COMPILER V7.06   MAIN                                                                  12/01/2005 19:02:46 PAGE 117 

                                           ; SOURCE LINE # 411
0131 EB                MOV     A,R3
0132 AE02              MOV     R6,AR2
0134 7803              MOV     R0,#03H
0136         ?C0042:
0136 C3                CLR     C
0137 33                RLC     A
0138 CE                XCH     A,R6
0139 33                RLC     A
013A CE                XCH     A,R6
013B D8F9              DJNZ    R0,?C0042
013D         ?C0043:
013D FF                MOV     R7,A
013E E4                CLR     A
013F FC                MOV     R4,A
0140 FD                MOV     R5,A
0141 7800        R     MOV     R0,#LOW packet+038H
0143 120000      E     LCALL   ?C?LSTPDATA
                                           ; SOURCE LINE # 412
0146 120000      R     LCALL   L?0054
                                           ; SOURCE LINE # 413
                                           ; SOURCE LINE # 414
0149         ?C0034:
0149 22                RET     
             ; FUNCTION _MD5_RemainderBlock (END)

             ; FUNCTION _MD5 (BEGIN)
                                           ; SOURCE LINE # 417
0000 7800        R     MOV     R0,#LOW md5CheckSum
0002 EB                MOV     A,R3
0003 F2                MOVX    @R0,A
0004 08                INC     R0
0005 EA                MOV     A,R2
0006 F2                MOVX    @R0,A
0007 08                INC     R0
0008 E9                MOV     A,R1
0009 F2                MOVX    @R0,A
                                           ; SOURCE LINE # 418
                                           ; SOURCE LINE # 419
000A 7800        R     MOV     R0,#LOW md5CheckSum
000C E2                MOVX    A,@R0
000D FB                MOV     R3,A
000E 08                INC     R0
000F E2                MOVX    A,@R0
0010 FA                MOV     R2,A
0011 08                INC     R0
0012 E2                MOVX    A,@R0
0013 F9                MOV     R1,A
0014 120000      R     LCALL   _MD5_Init
                                           ; SOURCE LINE # 420
0017 7800        R     MOV     R0,#LOW pBuffer
0019 E2                MOVX    A,@R0
001A F9                MOV     R1,A
001B 08                INC     R0
001C E2                MOVX    A,@R0
001D FA                MOV     R2,A
001E 08                INC     R0
001F E2                MOVX    A,@R0
0020 7800        R     MOV     R0,#LOW ?_MD5_Block?BYTE+03H
0022 C9                XCH     A,R1
0023 F2                MOVX    @R0,A
0024 08                INC     R0
C51 COMPILER V7.06   MAIN                                                                  12/01/2005 19:02:46 PAGE 118 

0025 EA                MOV     A,R2
0026 F2                MOVX    @R0,A
0027 08                INC     R0
0028 E9                MOV     A,R1
0029 F2                MOVX    @R0,A
002A 7800        R     MOV     R0,#LOW bufferSize
002C E2                MOVX    A,@R0
002D FF                MOV     R7,A
002E 08                INC     R0
002F E2                MOVX    A,@R0
0030 7800        R     MOV     R0,#LOW ?_MD5_Block?BYTE+06H
0032 CF                XCH     A,R7
0033 F2                MOVX    @R0,A
0034 08                INC     R0
0035 EF                MOV     A,R7
0036 F2                MOVX    @R0,A
0037 7800        R     MOV     R0,#LOW md5CheckSum
0039 E2                MOVX    A,@R0
003A FB                MOV     R3,A
003B 08                INC     R0
003C E2                MOVX    A,@R0
003D FA                MOV     R2,A
003E 08                INC     R0
003F E2                MOVX    A,@R0
0040 F9                MOV     R1,A
0041 120000      R     LCALL   _MD5_Block
                                           ; SOURCE LINE # 421
0044 7800        R     MOV     R0,#LOW pBuffer
0046 E2                MOVX    A,@R0
0047 F9                MOV     R1,A
0048 08                INC     R0
0049 E2                MOVX    A,@R0
004A FA                MOV     R2,A
004B 08                INC     R0
004C E2                MOVX    A,@R0
004D 7800        R     MOV     R0,#LOW ?_MD5_RemainderBlock?BYTE+03H
004F C9                XCH     A,R1
0050 F2                MOVX    @R0,A
0051 08                INC     R0
0052 EA                MOV     A,R2
0053 F2                MOVX    @R0,A
0054 08                INC     R0
0055 E9                MOV     A,R1
0056 F2                MOVX    @R0,A
0057 7800        R     MOV     R0,#LOW bufferSize
0059 E2                MOVX    A,@R0
005A FF                MOV     R7,A
005B 08                INC     R0
005C E2                MOVX    A,@R0
005D 7800        R     MOV     R0,#LOW ?_MD5_RemainderBlock?BYTE+06H
005F CF                XCH     A,R7
0060 F2                MOVX    @R0,A
0061 08                INC     R0
0062 EF                MOV     A,R7
0063 F2                MOVX    @R0,A
0064 7800        R     MOV     R0,#LOW md5CheckSum
0066 E2                MOVX    A,@R0
0067 FB                MOV     R3,A
0068 08                INC     R0
0069 E2                MOVX    A,@R0
006A FA                MOV     R2,A
006B 08                INC     R0
C51 COMPILER V7.06   MAIN                                                                  12/01/2005 19:02:46 PAGE 119 

006C E2                MOVX    A,@R0
006D F9                MOV     R1,A
006E 020000      R     LJMP    _MD5_RemainderBlock
             ; FUNCTION _MD5 (END)

C51 COMPILER V7.06   MAIN                                                                  12/01/2005 19:02:46 PAGE 120 

NAME                                    CLASS   MSPACE  TYPE    OFFSET  SIZE
====                                    =====   ======  ====    ======  ====


tmpcount . . . . . . . . . . . . . . .  PUBLIC   XDATA  INT      0000H  2
P0 . . . . . . . . . . . . . . . . . .  SFR      DATA   U_CHAR   0080H  1
P1 . . . . . . . . . . . . . . . . . .  SFR      DATA   U_CHAR   0090H  1
P2 . . . . . . . . . . . . . . . . . .  SFR      DATA   U_CHAR   00A0H  1
P3 . . . . . . . . . . . . . . . . . .  SFR      DATA   U_CHAR   00B0H  1
EA . . . . . . . . . . . . . . . . . .  ABSBIT   -----  BIT      00AFH  1
byte_t . . . . . . . . . . . . . . . .  TYPEDEF  -----  U_CHAR   -----  1
number . . . . . . . . . . . . . . . .  PUBLIC   PDATA  U_INT    0000H  2
IEN0 . . . . . . . . . . . . . . . . .  SFR      DATA   U_CHAR   00A8H  1
IEN1 . . . . . . . . . . . . . . . . .  SFR      DATA   U_CHAR   00E8H  1
size_t . . . . . . . . . . . . . . . .  TYPEDEF  -----  U_INT    -----  2
_MD5_FF. . . . . . . . . . . . . . . .  PUBLIC   CODE   PROC     001BH  -----
  aa . . . . . . . . . . . . . . . . .  AUTO     PDATA  PTR      0000H  3
  bb . . . . . . . . . . . . . . . . .  AUTO     PDATA  U_LONG   0003H  4
  cc . . . . . . . . . . . . . . . . .  AUTO     PDATA  U_LONG   0007H  4
  dd . . . . . . . . . . . . . . . . .  AUTO     PDATA  U_LONG   000BH  4
  k. . . . . . . . . . . . . . . . . .  AUTO     PDATA  U_LONG   000FH  4
  s. . . . . . . . . . . . . . . . . .  AUTO     PDATA  U_LONG   0013H  4
  t. . . . . . . . . . . . . . . . . .  AUTO     PDATA  U_LONG   0017H  4
md5out1. . . . . . . . . . . . . . . .  PUBLIC   PDATA  STRUCT   0002H  16
_MD5_RemainderBlock. . . . . . . . . .  PUBLIC   CODE   PROC     0000H  -----
  md5CheckSum. . . . . . . . . . . . .  AUTO     PDATA  PTR      0000H  3
  pBuffer. . . . . . . . . . . . . . .  AUTO     PDATA  VOID_PTR 0003H  3
  bufferSize . . . . . . . . . . . . .  AUTO     PDATA  U_INT    0006H  2
  packet . . . . . . . . . . . . . . .  AUTO     PDATA  ARRAY    0008H  64
  remainder. . . . . . . . . . . . . .  AUTO     PDATA  U_INT    0048H  2
  pSrc . . . . . . . . . . . . . . . .  AUTO     PDATA  PTR      004AH  3
_MD5_GG. . . . . . . . . . . . . . . .  PUBLIC   CODE   PROC     001BH  -----
  aa . . . . . . . . . . . . . . . . .  AUTO     PDATA  PTR      0000H  3
  bb . . . . . . . . . . . . . . . . .  AUTO     PDATA  U_LONG   0003H  4
  cc . . . . . . . . . . . . . . . . .  AUTO     PDATA  U_LONG   0007H  4
  dd . . . . . . . . . . . . . . . . .  AUTO     PDATA  U_LONG   000BH  4
  k. . . . . . . . . . . . . . . . . .  AUTO     PDATA  U_LONG   000FH  4
  s. . . . . . . . . . . . . . . . . .  AUTO     PDATA  U_LONG   0013H  4
  t. . . . . . . . . . . . . . . . . .  AUTO     PDATA  U_LONG   0017H  4
_MD5_HH. . . . . . . . . . . . . . . .  PUBLIC   CODE   PROC     001BH  -----
  aa . . . . . . . . . . . . . . . . .  AUTO     PDATA  PTR      0000H  3
  bb . . . . . . . . . . . . . . . . .  AUTO     PDATA  U_LONG   0003H  4
  cc . . . . . . . . . . . . . . . . .  AUTO     PDATA  U_LONG   0007H  4
  dd . . . . . . . . . . . . . . . . .  AUTO     PDATA  U_LONG   000BH  4
  k. . . . . . . . . . . . . . . . . .  AUTO     PDATA  U_LONG   000FH  4
  s. . . . . . . . . . . . . . . . . .  AUTO     PDATA  U_LONG   0013H  4
  t. . . . . . . . . . . . . . . . . .  AUTO     PDATA  U_LONG   0017H  4
Rec_flag . . . . . . . . . . . . . . .  PUBLIC   XDATA  U_CHAR   0002H  1
_MD5_II. . . . . . . . . . . . . . . .  PUBLIC   CODE   PROC     001BH  -----
  aa . . . . . . . . . . . . . . . . .  AUTO     PDATA  PTR      0000H  3
  bb . . . . . . . . . . . . . . . . .  AUTO     PDATA  U_LONG   0003H  4
  cc . . . . . . . . . . . . . . . . .  AUTO     PDATA  U_LONG   0007H  4
  dd . . . . . . . . . . . . . . . . .  AUTO     PDATA  U_LONG   000BH  4
  k. . . . . . . . . . . . . . . . . .  AUTO     PDATA  U_LONG   000FH  4
  s. . . . . . . . . . . . . . . . . .  AUTO     PDATA  U_LONG   0013H  4
  t. . . . . . . . . . . . . . . . . .  AUTO     PDATA  U_LONG   0017H  4
IP . . . . . . . . . . . . . . . . . .  SFR      DATA   U_CHAR   00B8H  1
_MD5_Init. . . . . . . . . . . . . . .  PUBLIC   CODE   PROC     0000H  -----
  md5CheckSum. . . . . . . . . . . . .  * REG *  DATA   PTR      0001H  3
CCON . . . . . . . . . . . . . . . . .  SFR      DATA   U_CHAR   00C0H  1
_int2hex . . . . . . . . . . . . . . .  PUBLIC   CODE   PROC     000BH  -----
C51 COMPILER V7.06   MAIN                                                                  12/01/2005 19:02:46 PAGE 121 

NAME                                    CLASS   MSPACE  TYPE    OFFSET  SIZE
====                                    =====   ======  ====    ======  ====


  num. . . . . . . . . . . . . . . . .  AUTO     PDATA  U_LONG   0000H  4
  s_int. . . . . . . . . . . . . . . .  AUTO     PDATA  ARRAY    0004H  8
  i. . . . . . . . . . . . . . . . . .  AUTO     PDATA  INT      000CH  2
_MD5 . . . . . . . . . . . . . . . . .  PUBLIC   CODE   PROC     0000H  -----
  md5CheckSum. . . . . . . . . . . . .  AUTO     PDATA  PTR      0000H  3
  pBuffer. . . . . . . . . . . . . . .  AUTO     PDATA  VOID_PTR 0003H  3
  bufferSize . . . . . . . . . . . . .  AUTO     PDATA  U_INT    0006H  2
main . . . . . . . . . . . . . . . . .  PUBLIC   CODE   PROC     0000H  -----
isusb. . . . . . . . . . . . . . . . .  PUBLIC   XDATA  INT      0003H  2
TCON . . . . . . . . . . . . . . . . .  SFR      DATA   U_CHAR   0088H  1
_putachar. . . . . . . . . . . . . . .  EXTERN   CODE   PROC     -----  -----
_MD5_CYCLIC. . . . . . . . . . . . . .  PUBLIC   CODE   PROC     0000H  -----
  w. . . . . . . . . . . . . . . . . .  AUTO     PDATA  U_LONG   0000H  4
  s. . . . . . . . . . . . . . . . . .  AUTO     PDATA  U_LONG   0004H  4
AUXR . . . . . . . . . . . . . . . . .  SFR      DATA   U_CHAR   008EH  1
_MD5_F . . . . . . . . . . . . . . . .  PUBLIC   CODE   PROC     0000H  -----
  bb . . . . . . . . . . . . . . . . .  AUTO     PDATA  U_LONG   0000H  4
  cc . . . . . . . . . . . . . . . . .  AUTO     PDATA  U_LONG   0004H  4
  dd . . . . . . . . . . . . . . . . .  AUTO     PDATA  U_LONG   0008H  4
_MD5_G . . . . . . . . . . . . . . . .  PUBLIC   CODE   PROC     0000H  -----
  bb . . . . . . . . . . . . . . . . .  AUTO     PDATA  U_LONG   0000H  4
  cc . . . . . . . . . . . . . . . . .  AUTO     PDATA  U_LONG   0004H  4
  dd . . . . . . . . . . . . . . . . .  AUTO     PDATA  U_LONG   0008H  4
EX0. . . . . . . . . . . . . . . . . .  ABSBIT   -----  BIT      00A8H  1
IT0. . . . . . . . . . . . . . . . . .  ABSBIT   -----  BIT      0088H  1
_MD5_H . . . . . . . . . . . . . . . .  PUBLIC   CODE   PROC     0000H  -----
  bb . . . . . . . . . . . . . . . . .  AUTO     PDATA  U_LONG   0000H  4
  cc . . . . . . . . . . . . . . . . .  AUTO     PDATA  U_LONG   0004H  4
  dd . . . . . . . . . . . . . . . . .  AUTO     PDATA  U_LONG   0008H  4
_MD5_I . . . . . . . . . . . . . . . .  PUBLIC   CODE   PROC     0000H  -----
  bb . . . . . . . . . . . . . . . . .  AUTO     PDATA  U_LONG   0000H  4
  cc . . . . . . . . . . . . . . . . .  AUTO     PDATA  U_LONG   0004H  4
  dd . . . . . . . . . . . . . . . . .  AUTO     PDATA  U_LONG   0008H  4
pa . . . . . . . . . . . . . . . . . .  PUBLIC   PDATA  ARRAY    0012H  5
PX0. . . . . . . . . . . . . . . . . .  ABSBIT   -----  BIT      00BAH  1
com_initialize . . . . . . . . . . . .  EXTERN   CODE   PROC     -----  -----
MD5_T10. . . . . . . . . . . . . . . .  PUBLIC   CODE   U_LONG   0048H  4
MD5_T01. . . . . . . . . . . . . . . .  PUBLIC   CODE   U_LONG   0024H  4
MD5_T20. . . . . . . . . . . . . . . .  PUBLIC   CODE   U_LONG   0070H  4
MD5_T11. . . . . . . . . . . . . . . .  PUBLIC   CODE   U_LONG   004CH  4
MD5_T02. . . . . . . . . . . . . . . .  PUBLIC   CODE   U_LONG   0028H  4
MD5_T30. . . . . . . . . . . . . . . .  PUBLIC   CODE   U_LONG   0098H  4
MD5_T21. . . . . . . . . . . . . . . .  PUBLIC   CODE   U_LONG   0074H  4
MD5_T12. . . . . . . . . . . . . . . .  PUBLIC   CODE   U_LONG   0050H  4
MD5_T03. . . . . . . . . . . . . . . .  PUBLIC   CODE   U_LONG   002CH  4
MD5_T40. . . . . . . . . . . . . . . .  PUBLIC   CODE   U_LONG   00C0H  4
MD5_T31. . . . . . . . . . . . . . . .  PUBLIC   CODE   U_LONG   009CH  4
MD5_T22. . . . . . . . . . . . . . . .  PUBLIC   CODE   U_LONG   0078H  4
MD5_T13. . . . . . . . . . . . . . . .  PUBLIC   CODE   U_LONG   0054H  4
MD5_T04. . . . . . . . . . . . . . . .  PUBLIC   CODE   U_LONG   0030H  4
MD5CheckSum. . . . . . . . . . . . . .  TYPEDEF  -----  STRUCT   -----  16
  state. . . . . . . . . . . . . . . .  MEMBER   -----  ARRAY    0000H  16
MD5CheckSum. . . . . . . . . . . . . .  * TAG *  -----  STRUCT   -----  16
  state. . . . . . . . . . . . . . . .  MEMBER   -----  ARRAY    0000H  16
MD5_T50. . . . . . . . . . . . . . . .  PUBLIC   CODE   U_LONG   00E8H  4
MD5_T41. . . . . . . . . . . . . . . .  PUBLIC   CODE   U_LONG   00C4H  4
MD5_T32. . . . . . . . . . . . . . . .  PUBLIC   CODE   U_LONG   00A0H  4
C51 COMPILER V7.06   MAIN                                                                  12/01/2005 19:02:46 PAGE 122 

NAME                                    CLASS   MSPACE  TYPE    OFFSET  SIZE
====                                    =====   ======  ====    ======  ====


MD5_T23. . . . . . . . . . . . . . . .  PUBLIC   CODE   U_LONG   007CH  4
MD5_T14. . . . . . . . . . . . . . . .  PUBLIC   CODE   U_LONG   0058H  4
MD5_T05. . . . . . . . . . . . . . . .  PUBLIC   CODE   U_LONG   0034H  4
MD5_T60. . . . . . . . . . . . . . . .  PUBLIC   CODE   U_LONG   0110H  4
MD5_T51. . . . . . . . . . . . . . . .  PUBLIC   CODE   U_LONG   00ECH  4
MD5_T42. . . . . . . . . . . . . . . .  PUBLIC   CODE   U_LONG   00C8H  4
MD5_T33. . . . . . . . . . . . . . . .  PUBLIC   CODE   U_LONG   00A4H  4
MD5_T24. . . . . . . . . . . . . . . .  PUBLIC   CODE   U_LONG   0080H  4
MD5_T15. . . . . . . . . . . . . . . .  PUBLIC   CODE   U_LONG   005CH  4
MD5_T06. . . . . . . . . . . . . . . .  PUBLIC   CODE   U_LONG   0038H  4
_MD5_Packet. . . . . . . . . . . . . .  PUBLIC   CODE   PROC     0017H  -----
  md5CheckSum. . . . . . . . . . . . .  AUTO     PDATA  PTR      0000H  3
  pPacket. . . . . . . . . . . . . . .  AUTO     PDATA  PTR      0003H  3
  aa . . . . . . . . . . . . . . . . .  AUTO     PDATA  U_LONG   0006H  4
  bb . . . . . . . . . . . . . . . . .  AUTO     PDATA  U_LONG   000AH  4
  cc . . . . . . . . . . . . . . . . .  AUTO     PDATA  U_LONG   000EH  4
  dd . . . . . . . . . . . . . . . . .  AUTO     PDATA  U_LONG   0012H  4
MD5_T61. . . . . . . . . . . . . . . .  PUBLIC   CODE   U_LONG   0114H  4
MD5_T52. . . . . . . . . . . . . . . .  PUBLIC   CODE   U_LONG   00F0H  4
MD5_T43. . . . . . . . . . . . . . . .  PUBLIC   CODE   U_LONG   00CCH  4
MD5_T34. . . . . . . . . . . . . . . .  PUBLIC   CODE   U_LONG   00A8H  4
MD5_T25. . . . . . . . . . . . . . . .  PUBLIC   CODE   U_LONG   0084H  4
MD5_T16. . . . . . . . . . . . . . . .  PUBLIC   CODE   U_LONG   0060H  4
MD5_T07. . . . . . . . . . . . . . . .  PUBLIC   CODE   U_LONG   003CH  4
MD5_T62. . . . . . . . . . . . . . . .  PUBLIC   CODE   U_LONG   0118H  4
MD5_T53. . . . . . . . . . . . . . . .  PUBLIC   CODE   U_LONG   00F4H  4
MD5_T44. . . . . . . . . . . . . . . .  PUBLIC   CODE   U_LONG   00D0H  4
MD5_T35. . . . . . . . . . . . . . . .  PUBLIC   CODE   U_LONG   00ACH  4
MD5_T26. . . . . . . . . . . . . . . .  PUBLIC   CODE   U_LONG   0088H  4
MD5_T17. . . . . . . . . . . . . . . .  PUBLIC   CODE   U_LONG   0064H  4
MD5_T08. . . . . . . . . . . . . . . .  PUBLIC   CODE   U_LONG   0040H  4
command. . . . . . . . . . . . . . . .  PUBLIC   PDATA  U_CHAR   0017H  1
MD5_T63. . . . . . . . . . . . . . . .  PUBLIC   CODE   U_LONG   011CH  4
MD5_T54. . . . . . . . . . . . . . . .  PUBLIC   CODE   U_LONG   00F8H  4
MD5_T45. . . . . . . . . . . . . . . .  PUBLIC   CODE   U_LONG   00D4H  4
MD5_T36. . . . . . . . . . . . . . . .  PUBLIC   CODE   U_LONG   00B0H  4
MD5_T27. . . . . . . . . . . . . . . .  PUBLIC   CODE   U_LONG   008CH  4
MD5_T18. . . . . . . . . . . . . . . .  PUBLIC   CODE   U_LONG   0068H  4
MD5_T09. . . . . . . . . . . . . . . .  PUBLIC   CODE   U_LONG   0044H  4
S0CON. . . . . . . . . . . . . . . . .  SFR      DATA   U_CHAR   0098H  1
MD5_T64. . . . . . . . . . . . . . . .  PUBLIC   CODE   U_LONG   0120H  4
MD5_T55. . . . . . . . . . . . . . . .  PUBLIC   CODE   U_LONG   00FCH  4
MD5_T46. . . . . . . . . . . . . . . .  PUBLIC   CODE   U_LONG   00D8H  4
MD5_T37. . . . . . . . . . . . . . . .  PUBLIC   CODE   U_LONG   00B4H  4
MD5_T28. . . . . . . . . . . . . . . .  PUBLIC   CODE   U_LONG   0090H  4
MD5_T19. . . . . . . . . . . . . . . .  PUBLIC   CODE   U_LONG   006CH  4
S1CON. . . . . . . . . . . . . . . . .  SFR      DATA   U_CHAR   00D8H  1
MD5_T56. . . . . . . . . . . . . . . .  PUBLIC   CODE   U_LONG   0100H  4
MD5_T47. . . . . . . . . . . . . . . .  PUBLIC   CODE   U_LONG   00DCH  4
MD5_T38. . . . . . . . . . . . . . . .  PUBLIC   CODE   U_LONG   00B8H  4
MD5_T29. . . . . . . . . . . . . . . .  PUBLIC   CODE   U_LONG   0094H  4
MD5_T57. . . . . . . . . . . . . . . .  PUBLIC   CODE   U_LONG   0104H  4
MD5_T48. . . . . . . . . . . . . . . .  PUBLIC   CODE   U_LONG   00E0H  4
MD5_T39. . . . . . . . . . . . . . . .  PUBLIC   CODE   U_LONG   00BCH  4
T2CON. . . . . . . . . . . . . . . . .  SFR      DATA   U_CHAR   00C8H  1
MD5_T58. . . . . . . . . . . . . . . .  PUBLIC   CODE   U_LONG   0108H  4
MD5_T49. . . . . . . . . . . . . . . .  PUBLIC   CODE   U_LONG   00E4H  4
C51 COMPILER V7.06   MAIN                                                                  12/01/2005 19:02:46 PAGE 123 

NAME                                    CLASS   MSPACE  TYPE    OFFSET  SIZE
====                                    =====   ======  ====    ======  ====


MD5_T59. . . . . . . . . . . . . . . .  PUBLIC   CODE   U_LONG   010CH  4
tmpBuf . . . . . . . . . . . . . . . .  PUBLIC   XDATA  ARRAY    0005H  100
_delay . . . . . . . . . . . . . . . .  PUBLIC   CODE   PROC     0000H  -----
  ti . . . . . . . . . . . . . . . . .  * REG *  DATA   U_INT    0006H  2
  pti. . . . . . . . . . . . . . . . .  * REG *  DATA   U_INT    0004H  2
windbuf. . . . . . . . . . . . . . . .  PUBLIC   XDATA  ARRAY    0069H  64
_MD5_Block . . . . . . . . . . . . . .  PUBLIC   CODE   PROC     0000H  -----
  md5CheckSum. . . . . . . . . . . . .  AUTO     PDATA  PTR      0000H  3
  pBuffer. . . . . . . . . . . . . . .  AUTO     PDATA  VOID_PTR 0003H  3
  bufferSize . . . . . . . . . . . . .  AUTO     PDATA  U_INT    0006H  2
  pSrc . . . . . . . . . . . . . . . .  AUTO     PDATA  PTR      0008H  3
  packet . . . . . . . . . . . . . . .  AUTO     PDATA  ARRAY    000BH  64
  count. . . . . . . . . . . . . . . .  AUTO     PDATA  U_INT    004BH  2
  i. . . . . . . . . . . . . . . . . .  AUTO     PDATA  U_INT    004DH  2
_putbuf. . . . . . . . . . . . . . . .  EXTERN   CODE   PROC     -----  -----
PSW. . . . . . . . . . . . . . . . . .  SFR      DATA   U_CHAR   00D0H  1


MODULE INFORMATION:   STATIC OVERLAYABLE
   CODE SIZE        =   8607    ----
   CONSTANT SIZE    =    292    ----
   XDATA SIZE       =    169    ----
   PDATA SIZE       =     24     364
   DATA SIZE        =   ----    ----
   IDATA SIZE       =   ----    ----
   BIT SIZE         =   ----    ----
END OF MODULE INFORMATION.


C51 COMPILATION COMPLETE.  0 WARNING(S),  0 ERROR(S)
